ARM GAS  C:\Users\matve\AppData\Local\Temp\ccRkZNWM.s 			page 1


   1              		.cpu cortex-m3
   2              		.arch armv7-m
   3              		.fpu softvfp
   4              		.eabi_attribute 20, 1
   5              		.eabi_attribute 21, 1
   6              		.eabi_attribute 23, 3
   7              		.eabi_attribute 24, 1
   8              		.eabi_attribute 25, 1
   9              		.eabi_attribute 26, 1
  10              		.eabi_attribute 30, 1
  11              		.eabi_attribute 34, 1
  12              		.eabi_attribute 18, 4
  13              		.file	"stm32f1xx_hal_tim.c"
  14              		.text
  15              		.section	.text.TIM_OC1_SetConfig,"ax",%progbits
  16              		.align	1
  17              		.syntax unified
  18              		.thumb
  19              		.thumb_func
  21              	TIM_OC1_SetConfig:
  22              		@ args = 0, pretend = 0, frame = 0
  23              		@ frame_needed = 0, uses_anonymous_args = 0
  24              		@ link register save eliminated.
  25 0000 30B4     		push	{r4, r5}
  26 0002 026A     		ldr	r2, [r0, #32]
  27 0004 036A     		ldr	r3, [r0, #32]
  28 0006 23F00103 		bic	r3, r3, #1
  29 000a 0362     		str	r3, [r0, #32]
  30 000c 4568     		ldr	r5, [r0, #4]
  31 000e 8369     		ldr	r3, [r0, #24]
  32 0010 23F07303 		bic	r3, r3, #115
  33 0014 0C68     		ldr	r4, [r1]
  34 0016 1C43     		orrs	r4, r4, r3
  35 0018 22F00202 		bic	r2, r2, #2
  36 001c 8B68     		ldr	r3, [r1, #8]
  37 001e 1343     		orrs	r3, r3, r2
  38 0020 0B4A     		ldr	r2, .L5
  39 0022 9042     		cmp	r0, r2
  40 0024 06D0     		beq	.L4
  41              	.L2:
  42 0026 4560     		str	r5, [r0, #4]
  43 0028 8461     		str	r4, [r0, #24]
  44 002a 4A68     		ldr	r2, [r1, #4]
  45 002c 4263     		str	r2, [r0, #52]
  46 002e 0362     		str	r3, [r0, #32]
  47 0030 30BC     		pop	{r4, r5}
  48 0032 7047     		bx	lr
  49              	.L4:
  50 0034 23F00803 		bic	r3, r3, #8
  51 0038 CA68     		ldr	r2, [r1, #12]
  52 003a 1A43     		orrs	r2, r2, r3
  53 003c 22F00403 		bic	r3, r2, #4
  54 0040 25F44075 		bic	r5, r5, #768
  55 0044 4A69     		ldr	r2, [r1, #20]
  56 0046 2A43     		orrs	r2, r2, r5
  57 0048 8D69     		ldr	r5, [r1, #24]
  58 004a 1543     		orrs	r5, r5, r2
ARM GAS  C:\Users\matve\AppData\Local\Temp\ccRkZNWM.s 			page 2


  59 004c EBE7     		b	.L2
  60              	.L6:
  61 004e 00BF     		.align	2
  62              	.L5:
  63 0050 002C0140 		.word	1073818624
  65              		.section	.text.TIM_OC3_SetConfig,"ax",%progbits
  66              		.align	1
  67              		.syntax unified
  68              		.thumb
  69              		.thumb_func
  71              	TIM_OC3_SetConfig:
  72              		@ args = 0, pretend = 0, frame = 0
  73              		@ frame_needed = 0, uses_anonymous_args = 0
  74              		@ link register save eliminated.
  75 0000 30B4     		push	{r4, r5}
  76 0002 036A     		ldr	r3, [r0, #32]
  77 0004 026A     		ldr	r2, [r0, #32]
  78 0006 22F48072 		bic	r2, r2, #256
  79 000a 0262     		str	r2, [r0, #32]
  80 000c 4468     		ldr	r4, [r0, #4]
  81 000e C269     		ldr	r2, [r0, #28]
  82 0010 22F07302 		bic	r2, r2, #115
  83 0014 0D68     		ldr	r5, [r1]
  84 0016 1543     		orrs	r5, r5, r2
  85 0018 23F40073 		bic	r3, r3, #512
  86 001c 8A68     		ldr	r2, [r1, #8]
  87 001e 43EA0223 		orr	r3, r3, r2, lsl #8
  88 0022 0D4A     		ldr	r2, .L11
  89 0024 9042     		cmp	r0, r2
  90 0026 06D0     		beq	.L10
  91              	.L8:
  92 0028 4460     		str	r4, [r0, #4]
  93 002a C561     		str	r5, [r0, #28]
  94 002c 4A68     		ldr	r2, [r1, #4]
  95 002e C263     		str	r2, [r0, #60]
  96 0030 0362     		str	r3, [r0, #32]
  97 0032 30BC     		pop	{r4, r5}
  98 0034 7047     		bx	lr
  99              	.L10:
 100 0036 23F40063 		bic	r3, r3, #2048
 101 003a CA68     		ldr	r2, [r1, #12]
 102 003c 43EA0223 		orr	r3, r3, r2, lsl #8
 103 0040 23F48063 		bic	r3, r3, #1024
 104 0044 24F44054 		bic	r4, r4, #12288
 105 0048 4A69     		ldr	r2, [r1, #20]
 106 004a 44EA0214 		orr	r4, r4, r2, lsl #4
 107 004e 8A69     		ldr	r2, [r1, #24]
 108 0050 44EA0214 		orr	r4, r4, r2, lsl #4
 109 0054 E8E7     		b	.L8
 110              	.L12:
 111 0056 00BF     		.align	2
 112              	.L11:
 113 0058 002C0140 		.word	1073818624
 115              		.section	.text.TIM_OC4_SetConfig,"ax",%progbits
 116              		.align	1
 117              		.syntax unified
 118              		.thumb
ARM GAS  C:\Users\matve\AppData\Local\Temp\ccRkZNWM.s 			page 3


 119              		.thumb_func
 121              	TIM_OC4_SetConfig:
 122              		@ args = 0, pretend = 0, frame = 0
 123              		@ frame_needed = 0, uses_anonymous_args = 0
 124              		@ link register save eliminated.
 125 0000 30B4     		push	{r4, r5}
 126 0002 036A     		ldr	r3, [r0, #32]
 127 0004 026A     		ldr	r2, [r0, #32]
 128 0006 22F48052 		bic	r2, r2, #4096
 129 000a 0262     		str	r2, [r0, #32]
 130 000c 4468     		ldr	r4, [r0, #4]
 131 000e C269     		ldr	r2, [r0, #28]
 132 0010 22F4E642 		bic	r2, r2, #29440
 133 0014 0D68     		ldr	r5, [r1]
 134 0016 42EA0522 		orr	r2, r2, r5, lsl #8
 135 001a 23F40053 		bic	r3, r3, #8192
 136 001e 8D68     		ldr	r5, [r1, #8]
 137 0020 43EA0533 		orr	r3, r3, r5, lsl #12
 138 0024 074D     		ldr	r5, .L17
 139 0026 A842     		cmp	r0, r5
 140 0028 06D0     		beq	.L16
 141              	.L14:
 142 002a 4460     		str	r4, [r0, #4]
 143 002c C261     		str	r2, [r0, #28]
 144 002e 4A68     		ldr	r2, [r1, #4]
 145 0030 0264     		str	r2, [r0, #64]
 146 0032 0362     		str	r3, [r0, #32]
 147 0034 30BC     		pop	{r4, r5}
 148 0036 7047     		bx	lr
 149              	.L16:
 150 0038 24F48044 		bic	r4, r4, #16384
 151 003c 4D69     		ldr	r5, [r1, #20]
 152 003e 44EA8514 		orr	r4, r4, r5, lsl #6
 153 0042 F2E7     		b	.L14
 154              	.L18:
 155              		.align	2
 156              	.L17:
 157 0044 002C0140 		.word	1073818624
 159              		.section	.text.TIM_TI1_ConfigInputStage,"ax",%progbits
 160              		.align	1
 161              		.syntax unified
 162              		.thumb
 163              		.thumb_func
 165              	TIM_TI1_ConfigInputStage:
 166              		@ args = 0, pretend = 0, frame = 0
 167              		@ frame_needed = 0, uses_anonymous_args = 0
 168              		@ link register save eliminated.
 169 0000 10B4     		push	{r4}
 170 0002 036A     		ldr	r3, [r0, #32]
 171 0004 046A     		ldr	r4, [r0, #32]
 172 0006 24F00104 		bic	r4, r4, #1
 173 000a 0462     		str	r4, [r0, #32]
 174 000c 8469     		ldr	r4, [r0, #24]
 175 000e 24F0F00C 		bic	ip, r4, #240
 176 0012 4CEA0212 		orr	r2, ip, r2, lsl #4
 177 0016 23F00A03 		bic	r3, r3, #10
 178 001a 0B43     		orrs	r3, r3, r1
ARM GAS  C:\Users\matve\AppData\Local\Temp\ccRkZNWM.s 			page 4


 179 001c 8261     		str	r2, [r0, #24]
 180 001e 0362     		str	r3, [r0, #32]
 181 0020 10BC     		pop	{r4}
 182 0022 7047     		bx	lr
 184              		.section	.text.TIM_TI2_SetConfig,"ax",%progbits
 185              		.align	1
 186              		.syntax unified
 187              		.thumb
 188              		.thumb_func
 190              	TIM_TI2_SetConfig:
 191              		@ args = 0, pretend = 0, frame = 0
 192              		@ frame_needed = 0, uses_anonymous_args = 0
 193              		@ link register save eliminated.
 194 0000 30B4     		push	{r4, r5}
 195 0002 056A     		ldr	r5, [r0, #32]
 196 0004 046A     		ldr	r4, [r0, #32]
 197 0006 24F01004 		bic	r4, r4, #16
 198 000a 0462     		str	r4, [r0, #32]
 199 000c 8469     		ldr	r4, [r0, #24]
 200 000e 24F4407C 		bic	ip, r4, #768
 201 0012 4CEA022C 		orr	ip, ip, r2, lsl #8
 202 0016 2CF4704C 		bic	ip, ip, #61440
 203 001a 1B03     		lsls	r3, r3, #12
 204 001c 9BB2     		uxth	r3, r3
 205 001e 43EA0C03 		orr	r3, r3, ip
 206 0022 25F0A005 		bic	r5, r5, #160
 207 0026 0901     		lsls	r1, r1, #4
 208 0028 01F0A001 		and	r1, r1, #160
 209 002c 2943     		orrs	r1, r1, r5
 210 002e 8361     		str	r3, [r0, #24]
 211 0030 0162     		str	r1, [r0, #32]
 212 0032 30BC     		pop	{r4, r5}
 213 0034 7047     		bx	lr
 215              		.section	.text.TIM_TI2_ConfigInputStage,"ax",%progbits
 216              		.align	1
 217              		.syntax unified
 218              		.thumb
 219              		.thumb_func
 221              	TIM_TI2_ConfigInputStage:
 222              		@ args = 0, pretend = 0, frame = 0
 223              		@ frame_needed = 0, uses_anonymous_args = 0
 224              		@ link register save eliminated.
 225 0000 10B4     		push	{r4}
 226 0002 036A     		ldr	r3, [r0, #32]
 227 0004 046A     		ldr	r4, [r0, #32]
 228 0006 24F01004 		bic	r4, r4, #16
 229 000a 0462     		str	r4, [r0, #32]
 230 000c 8469     		ldr	r4, [r0, #24]
 231 000e 24F4704C 		bic	ip, r4, #61440
 232 0012 4CEA0232 		orr	r2, ip, r2, lsl #12
 233 0016 23F0A003 		bic	r3, r3, #160
 234 001a 43EA0113 		orr	r3, r3, r1, lsl #4
 235 001e 8261     		str	r2, [r0, #24]
 236 0020 0362     		str	r3, [r0, #32]
 237 0022 10BC     		pop	{r4}
 238 0024 7047     		bx	lr
 240              		.section	.text.TIM_TI3_SetConfig,"ax",%progbits
ARM GAS  C:\Users\matve\AppData\Local\Temp\ccRkZNWM.s 			page 5


 241              		.align	1
 242              		.syntax unified
 243              		.thumb
 244              		.thumb_func
 246              	TIM_TI3_SetConfig:
 247              		@ args = 0, pretend = 0, frame = 0
 248              		@ frame_needed = 0, uses_anonymous_args = 0
 249              		@ link register save eliminated.
 250 0000 30B4     		push	{r4, r5}
 251 0002 056A     		ldr	r5, [r0, #32]
 252 0004 046A     		ldr	r4, [r0, #32]
 253 0006 24F48074 		bic	r4, r4, #256
 254 000a 0462     		str	r4, [r0, #32]
 255 000c C469     		ldr	r4, [r0, #28]
 256 000e 24F0030C 		bic	ip, r4, #3
 257 0012 4CEA020C 		orr	ip, ip, r2
 258 0016 2CF0F00C 		bic	ip, ip, #240
 259 001a 1B01     		lsls	r3, r3, #4
 260 001c DBB2     		uxtb	r3, r3
 261 001e 43EA0C03 		orr	r3, r3, ip
 262 0022 25F40075 		bic	r5, r5, #512
 263 0026 0902     		lsls	r1, r1, #8
 264 0028 01F40071 		and	r1, r1, #512
 265 002c 2943     		orrs	r1, r1, r5
 266 002e C361     		str	r3, [r0, #28]
 267 0030 0162     		str	r1, [r0, #32]
 268 0032 30BC     		pop	{r4, r5}
 269 0034 7047     		bx	lr
 271              		.section	.text.TIM_TI4_SetConfig,"ax",%progbits
 272              		.align	1
 273              		.syntax unified
 274              		.thumb
 275              		.thumb_func
 277              	TIM_TI4_SetConfig:
 278              		@ args = 0, pretend = 0, frame = 0
 279              		@ frame_needed = 0, uses_anonymous_args = 0
 280              		@ link register save eliminated.
 281 0000 30B4     		push	{r4, r5}
 282 0002 056A     		ldr	r5, [r0, #32]
 283 0004 046A     		ldr	r4, [r0, #32]
 284 0006 24F48054 		bic	r4, r4, #4096
 285 000a 0462     		str	r4, [r0, #32]
 286 000c C469     		ldr	r4, [r0, #28]
 287 000e 24F4407C 		bic	ip, r4, #768
 288 0012 4CEA022C 		orr	ip, ip, r2, lsl #8
 289 0016 2CF4704C 		bic	ip, ip, #61440
 290 001a 1B03     		lsls	r3, r3, #12
 291 001c 9BB2     		uxth	r3, r3
 292 001e 43EA0C03 		orr	r3, r3, ip
 293 0022 25F40055 		bic	r5, r5, #8192
 294 0026 0903     		lsls	r1, r1, #12
 295 0028 01F40051 		and	r1, r1, #8192
 296 002c 2943     		orrs	r1, r1, r5
 297 002e C361     		str	r3, [r0, #28]
 298 0030 0162     		str	r1, [r0, #32]
 299 0032 30BC     		pop	{r4, r5}
 300 0034 7047     		bx	lr
ARM GAS  C:\Users\matve\AppData\Local\Temp\ccRkZNWM.s 			page 6


 302              		.section	.text.TIM_ITRx_SetConfig,"ax",%progbits
 303              		.align	1
 304              		.syntax unified
 305              		.thumb
 306              		.thumb_func
 308              	TIM_ITRx_SetConfig:
 309              		@ args = 0, pretend = 0, frame = 0
 310              		@ frame_needed = 0, uses_anonymous_args = 0
 311              		@ link register save eliminated.
 312 0000 8368     		ldr	r3, [r0, #8]
 313 0002 23F07003 		bic	r3, r3, #112
 314 0006 0B43     		orrs	r3, r3, r1
 315 0008 43F00703 		orr	r3, r3, #7
 316 000c 8360     		str	r3, [r0, #8]
 317 000e 7047     		bx	lr
 319              		.section	.text.HAL_TIM_Base_MspInit,"ax",%progbits
 320              		.align	1
 321              		.weak	HAL_TIM_Base_MspInit
 322              		.syntax unified
 323              		.thumb
 324              		.thumb_func
 326              	HAL_TIM_Base_MspInit:
 327              		@ args = 0, pretend = 0, frame = 0
 328              		@ frame_needed = 0, uses_anonymous_args = 0
 329              		@ link register save eliminated.
 330 0000 7047     		bx	lr
 332              		.section	.text.HAL_TIM_Base_MspDeInit,"ax",%progbits
 333              		.align	1
 334              		.weak	HAL_TIM_Base_MspDeInit
 335              		.syntax unified
 336              		.thumb
 337              		.thumb_func
 339              	HAL_TIM_Base_MspDeInit:
 340              		@ args = 0, pretend = 0, frame = 0
 341              		@ frame_needed = 0, uses_anonymous_args = 0
 342              		@ link register save eliminated.
 343 0000 7047     		bx	lr
 345              		.section	.text.HAL_TIM_Base_DeInit,"ax",%progbits
 346              		.align	1
 347              		.global	HAL_TIM_Base_DeInit
 348              		.syntax unified
 349              		.thumb
 350              		.thumb_func
 352              	HAL_TIM_Base_DeInit:
 353              		@ args = 0, pretend = 0, frame = 0
 354              		@ frame_needed = 0, uses_anonymous_args = 0
 355 0000 10B5     		push	{r4, lr}
 356 0002 0446     		mov	r4, r0
 357 0004 0223     		movs	r3, #2
 358 0006 80F83D30 		strb	r3, [r0, #61]
 359 000a 0368     		ldr	r3, [r0]
 360 000c 196A     		ldr	r1, [r3, #32]
 361 000e 41F21112 		movw	r2, #4369
 362 0012 1142     		tst	r1, r2
 363 0014 08D1     		bne	.L33
 364 0016 196A     		ldr	r1, [r3, #32]
 365 0018 40F24442 		movw	r2, #1092
ARM GAS  C:\Users\matve\AppData\Local\Temp\ccRkZNWM.s 			page 7


 366 001c 1142     		tst	r1, r2
 367 001e 03D1     		bne	.L33
 368 0020 1A68     		ldr	r2, [r3]
 369 0022 22F00102 		bic	r2, r2, #1
 370 0026 1A60     		str	r2, [r3]
 371              	.L33:
 372 0028 2046     		mov	r0, r4
 373 002a FFF7FEFF 		bl	HAL_TIM_Base_MspDeInit
 374 002e 0020     		movs	r0, #0
 375 0030 84F84600 		strb	r0, [r4, #70]
 376 0034 84F83E00 		strb	r0, [r4, #62]
 377 0038 84F83F00 		strb	r0, [r4, #63]
 378 003c 84F84000 		strb	r0, [r4, #64]
 379 0040 84F84100 		strb	r0, [r4, #65]
 380 0044 84F84200 		strb	r0, [r4, #66]
 381 0048 84F84300 		strb	r0, [r4, #67]
 382 004c 84F84400 		strb	r0, [r4, #68]
 383 0050 84F84500 		strb	r0, [r4, #69]
 384 0054 84F83D00 		strb	r0, [r4, #61]
 385 0058 84F83C00 		strb	r0, [r4, #60]
 386 005c 10BD     		pop	{r4, pc}
 388              		.section	.text.HAL_TIM_Base_Start,"ax",%progbits
 389              		.align	1
 390              		.global	HAL_TIM_Base_Start
 391              		.syntax unified
 392              		.thumb
 393              		.thumb_func
 395              	HAL_TIM_Base_Start:
 396              		@ args = 0, pretend = 0, frame = 0
 397              		@ frame_needed = 0, uses_anonymous_args = 0
 398              		@ link register save eliminated.
 399 0000 90F83D30 		ldrb	r3, [r0, #61]	@ zero_extendqisi2
 400 0004 DBB2     		uxtb	r3, r3
 401 0006 012B     		cmp	r3, #1
 402 0008 22D1     		bne	.L39
 403 000a 0223     		movs	r3, #2
 404 000c 80F83D30 		strb	r3, [r0, #61]
 405 0010 0368     		ldr	r3, [r0]
 406 0012 114A     		ldr	r2, .L41
 407 0014 9342     		cmp	r3, r2
 408 0016 10D0     		beq	.L37
 409 0018 B3F1804F 		cmp	r3, #1073741824
 410 001c 0DD0     		beq	.L37
 411 001e A2F59432 		sub	r2, r2, #75776
 412 0022 9342     		cmp	r3, r2
 413 0024 09D0     		beq	.L37
 414 0026 02F58062 		add	r2, r2, #1024
 415 002a 9342     		cmp	r3, r2
 416 002c 05D0     		beq	.L37
 417 002e 1A68     		ldr	r2, [r3]
 418 0030 42F00102 		orr	r2, r2, #1
 419 0034 1A60     		str	r2, [r3]
 420 0036 0020     		movs	r0, #0
 421 0038 7047     		bx	lr
 422              	.L37:
 423 003a 9A68     		ldr	r2, [r3, #8]
 424 003c 02F00702 		and	r2, r2, #7
ARM GAS  C:\Users\matve\AppData\Local\Temp\ccRkZNWM.s 			page 8


 425 0040 062A     		cmp	r2, #6
 426 0042 07D0     		beq	.L40
 427 0044 1A68     		ldr	r2, [r3]
 428 0046 42F00102 		orr	r2, r2, #1
 429 004a 1A60     		str	r2, [r3]
 430 004c 0020     		movs	r0, #0
 431 004e 7047     		bx	lr
 432              	.L39:
 433 0050 0120     		movs	r0, #1
 434 0052 7047     		bx	lr
 435              	.L40:
 436 0054 0020     		movs	r0, #0
 437 0056 7047     		bx	lr
 438              	.L42:
 439              		.align	2
 440              	.L41:
 441 0058 002C0140 		.word	1073818624
 443              		.section	.text.HAL_TIM_Base_Stop,"ax",%progbits
 444              		.align	1
 445              		.global	HAL_TIM_Base_Stop
 446              		.syntax unified
 447              		.thumb
 448              		.thumb_func
 450              	HAL_TIM_Base_Stop:
 451              		@ args = 0, pretend = 0, frame = 0
 452              		@ frame_needed = 0, uses_anonymous_args = 0
 453              		@ link register save eliminated.
 454 0000 0368     		ldr	r3, [r0]
 455 0002 196A     		ldr	r1, [r3, #32]
 456 0004 41F21112 		movw	r2, #4369
 457 0008 1142     		tst	r1, r2
 458 000a 08D1     		bne	.L44
 459 000c 196A     		ldr	r1, [r3, #32]
 460 000e 40F24442 		movw	r2, #1092
 461 0012 1142     		tst	r1, r2
 462 0014 03D1     		bne	.L44
 463 0016 1A68     		ldr	r2, [r3]
 464 0018 22F00102 		bic	r2, r2, #1
 465 001c 1A60     		str	r2, [r3]
 466              	.L44:
 467 001e 0123     		movs	r3, #1
 468 0020 80F83D30 		strb	r3, [r0, #61]
 469 0024 0020     		movs	r0, #0
 470 0026 7047     		bx	lr
 472              		.section	.text.HAL_TIM_Base_Start_IT,"ax",%progbits
 473              		.align	1
 474              		.global	HAL_TIM_Base_Start_IT
 475              		.syntax unified
 476              		.thumb
 477              		.thumb_func
 479              	HAL_TIM_Base_Start_IT:
 480              		@ args = 0, pretend = 0, frame = 0
 481              		@ frame_needed = 0, uses_anonymous_args = 0
 482              		@ link register save eliminated.
 483 0000 90F83D30 		ldrb	r3, [r0, #61]	@ zero_extendqisi2
 484 0004 DBB2     		uxtb	r3, r3
 485 0006 012B     		cmp	r3, #1
ARM GAS  C:\Users\matve\AppData\Local\Temp\ccRkZNWM.s 			page 9


 486 0008 27D1     		bne	.L49
 487 000a 0223     		movs	r3, #2
 488 000c 80F83D30 		strb	r3, [r0, #61]
 489 0010 0268     		ldr	r2, [r0]
 490 0012 D368     		ldr	r3, [r2, #12]
 491 0014 43F00103 		orr	r3, r3, #1
 492 0018 D360     		str	r3, [r2, #12]
 493 001a 0368     		ldr	r3, [r0]
 494 001c 114A     		ldr	r2, .L51
 495 001e 9342     		cmp	r3, r2
 496 0020 10D0     		beq	.L47
 497 0022 B3F1804F 		cmp	r3, #1073741824
 498 0026 0DD0     		beq	.L47
 499 0028 A2F59432 		sub	r2, r2, #75776
 500 002c 9342     		cmp	r3, r2
 501 002e 09D0     		beq	.L47
 502 0030 02F58062 		add	r2, r2, #1024
 503 0034 9342     		cmp	r3, r2
 504 0036 05D0     		beq	.L47
 505 0038 1A68     		ldr	r2, [r3]
 506 003a 42F00102 		orr	r2, r2, #1
 507 003e 1A60     		str	r2, [r3]
 508 0040 0020     		movs	r0, #0
 509 0042 7047     		bx	lr
 510              	.L47:
 511 0044 9A68     		ldr	r2, [r3, #8]
 512 0046 02F00702 		and	r2, r2, #7
 513 004a 062A     		cmp	r2, #6
 514 004c 07D0     		beq	.L50
 515 004e 1A68     		ldr	r2, [r3]
 516 0050 42F00102 		orr	r2, r2, #1
 517 0054 1A60     		str	r2, [r3]
 518 0056 0020     		movs	r0, #0
 519 0058 7047     		bx	lr
 520              	.L49:
 521 005a 0120     		movs	r0, #1
 522 005c 7047     		bx	lr
 523              	.L50:
 524 005e 0020     		movs	r0, #0
 525 0060 7047     		bx	lr
 526              	.L52:
 527 0062 00BF     		.align	2
 528              	.L51:
 529 0064 002C0140 		.word	1073818624
 531              		.section	.text.HAL_TIM_Base_Stop_IT,"ax",%progbits
 532              		.align	1
 533              		.global	HAL_TIM_Base_Stop_IT
 534              		.syntax unified
 535              		.thumb
 536              		.thumb_func
 538              	HAL_TIM_Base_Stop_IT:
 539              		@ args = 0, pretend = 0, frame = 0
 540              		@ frame_needed = 0, uses_anonymous_args = 0
 541              		@ link register save eliminated.
 542 0000 0268     		ldr	r2, [r0]
 543 0002 D368     		ldr	r3, [r2, #12]
 544 0004 23F00103 		bic	r3, r3, #1
ARM GAS  C:\Users\matve\AppData\Local\Temp\ccRkZNWM.s 			page 10


 545 0008 D360     		str	r3, [r2, #12]
 546 000a 0368     		ldr	r3, [r0]
 547 000c 196A     		ldr	r1, [r3, #32]
 548 000e 41F21112 		movw	r2, #4369
 549 0012 1142     		tst	r1, r2
 550 0014 08D1     		bne	.L54
 551 0016 196A     		ldr	r1, [r3, #32]
 552 0018 40F24442 		movw	r2, #1092
 553 001c 1142     		tst	r1, r2
 554 001e 03D1     		bne	.L54
 555 0020 1A68     		ldr	r2, [r3]
 556 0022 22F00102 		bic	r2, r2, #1
 557 0026 1A60     		str	r2, [r3]
 558              	.L54:
 559 0028 0123     		movs	r3, #1
 560 002a 80F83D30 		strb	r3, [r0, #61]
 561 002e 0020     		movs	r0, #0
 562 0030 7047     		bx	lr
 564              		.section	.text.HAL_TIM_Base_Start_DMA,"ax",%progbits
 565              		.align	1
 566              		.global	HAL_TIM_Base_Start_DMA
 567              		.syntax unified
 568              		.thumb
 569              		.thumb_func
 571              	HAL_TIM_Base_Start_DMA:
 572              		@ args = 0, pretend = 0, frame = 0
 573              		@ frame_needed = 0, uses_anonymous_args = 0
 574 0000 38B5     		push	{r3, r4, r5, lr}
 575 0002 90F83D40 		ldrb	r4, [r0, #61]	@ zero_extendqisi2
 576 0006 E4B2     		uxtb	r4, r4
 577 0008 022C     		cmp	r4, #2
 578 000a 44D0     		beq	.L56
 579 000c 0546     		mov	r5, r0
 580 000e 90F83D40 		ldrb	r4, [r0, #61]	@ zero_extendqisi2
 581 0012 E4B2     		uxtb	r4, r4
 582 0014 012C     		cmp	r4, #1
 583 0016 3DD1     		bne	.L59
 584 0018 0029     		cmp	r1, #0
 585 001a 3CD0     		beq	.L56
 586 001c 002A     		cmp	r2, #0
 587 001e 3AD0     		beq	.L56
 588 0020 0223     		movs	r3, #2
 589 0022 80F83D30 		strb	r3, [r0, #61]
 590 0026 036A     		ldr	r3, [r0, #32]
 591 0028 1D48     		ldr	r0, .L62
 592 002a 9862     		str	r0, [r3, #40]
 593 002c 2B6A     		ldr	r3, [r5, #32]
 594 002e 1D48     		ldr	r0, .L62+4
 595 0030 D862     		str	r0, [r3, #44]
 596 0032 2B6A     		ldr	r3, [r5, #32]
 597 0034 1C48     		ldr	r0, .L62+8
 598 0036 1863     		str	r0, [r3, #48]
 599 0038 2868     		ldr	r0, [r5]
 600 003a 1346     		mov	r3, r2
 601 003c 00F12C02 		add	r2, r0, #44
 602 0040 286A     		ldr	r0, [r5, #32]
 603 0042 FFF7FEFF 		bl	HAL_DMA_Start_IT
ARM GAS  C:\Users\matve\AppData\Local\Temp\ccRkZNWM.s 			page 11


 604 0046 0146     		mov	r1, r0
 605 0048 28BB     		cbnz	r0, .L56
 606 004a 2A68     		ldr	r2, [r5]
 607 004c D368     		ldr	r3, [r2, #12]
 608 004e 43F48073 		orr	r3, r3, #256
 609 0052 D360     		str	r3, [r2, #12]
 610 0054 2B68     		ldr	r3, [r5]
 611 0056 154A     		ldr	r2, .L62+12
 612 0058 9342     		cmp	r3, r2
 613 005a 10D0     		beq	.L57
 614 005c B3F1804F 		cmp	r3, #1073741824
 615 0060 0DD0     		beq	.L57
 616 0062 A2F59432 		sub	r2, r2, #75776
 617 0066 9342     		cmp	r3, r2
 618 0068 09D0     		beq	.L57
 619 006a 02F58062 		add	r2, r2, #1024
 620 006e 9342     		cmp	r3, r2
 621 0070 05D0     		beq	.L57
 622 0072 1A68     		ldr	r2, [r3]
 623 0074 42F00102 		orr	r2, r2, #1
 624 0078 1A60     		str	r2, [r3]
 625 007a 0446     		mov	r4, r0
 626 007c 0BE0     		b	.L56
 627              	.L57:
 628 007e 9A68     		ldr	r2, [r3, #8]
 629 0080 02F00702 		and	r2, r2, #7
 630 0084 062A     		cmp	r2, #6
 631 0086 08D0     		beq	.L60
 632 0088 1A68     		ldr	r2, [r3]
 633 008a 42F00102 		orr	r2, r2, #1
 634 008e 1A60     		str	r2, [r3]
 635 0090 0C46     		mov	r4, r1
 636 0092 00E0     		b	.L56
 637              	.L59:
 638 0094 0124     		movs	r4, #1
 639              	.L56:
 640 0096 2046     		mov	r0, r4
 641 0098 38BD     		pop	{r3, r4, r5, pc}
 642              	.L60:
 643 009a 0C46     		mov	r4, r1
 644 009c FBE7     		b	.L56
 645              	.L63:
 646 009e 00BF     		.align	2
 647              	.L62:
 648 00a0 00000000 		.word	TIM_DMAPeriodElapsedCplt
 649 00a4 00000000 		.word	TIM_DMAPeriodElapsedHalfCplt
 650 00a8 00000000 		.word	TIM_DMAError
 651 00ac 002C0140 		.word	1073818624
 653              		.section	.text.HAL_TIM_Base_Stop_DMA,"ax",%progbits
 654              		.align	1
 655              		.global	HAL_TIM_Base_Stop_DMA
 656              		.syntax unified
 657              		.thumb
 658              		.thumb_func
 660              	HAL_TIM_Base_Stop_DMA:
 661              		@ args = 0, pretend = 0, frame = 0
 662              		@ frame_needed = 0, uses_anonymous_args = 0
ARM GAS  C:\Users\matve\AppData\Local\Temp\ccRkZNWM.s 			page 12


 663 0000 10B5     		push	{r4, lr}
 664 0002 0446     		mov	r4, r0
 665 0004 0268     		ldr	r2, [r0]
 666 0006 D368     		ldr	r3, [r2, #12]
 667 0008 23F48073 		bic	r3, r3, #256
 668 000c D360     		str	r3, [r2, #12]
 669 000e 006A     		ldr	r0, [r0, #32]
 670 0010 FFF7FEFF 		bl	HAL_DMA_Abort_IT
 671 0014 2368     		ldr	r3, [r4]
 672 0016 196A     		ldr	r1, [r3, #32]
 673 0018 41F21112 		movw	r2, #4369
 674 001c 1142     		tst	r1, r2
 675 001e 08D1     		bne	.L65
 676 0020 196A     		ldr	r1, [r3, #32]
 677 0022 40F24442 		movw	r2, #1092
 678 0026 1142     		tst	r1, r2
 679 0028 03D1     		bne	.L65
 680 002a 1A68     		ldr	r2, [r3]
 681 002c 22F00102 		bic	r2, r2, #1
 682 0030 1A60     		str	r2, [r3]
 683              	.L65:
 684 0032 0123     		movs	r3, #1
 685 0034 84F83D30 		strb	r3, [r4, #61]
 686 0038 0020     		movs	r0, #0
 687 003a 10BD     		pop	{r4, pc}
 689              		.section	.text.HAL_TIM_OC_MspInit,"ax",%progbits
 690              		.align	1
 691              		.weak	HAL_TIM_OC_MspInit
 692              		.syntax unified
 693              		.thumb
 694              		.thumb_func
 696              	HAL_TIM_OC_MspInit:
 697              		@ args = 0, pretend = 0, frame = 0
 698              		@ frame_needed = 0, uses_anonymous_args = 0
 699              		@ link register save eliminated.
 700 0000 7047     		bx	lr
 702              		.section	.text.HAL_TIM_OC_MspDeInit,"ax",%progbits
 703              		.align	1
 704              		.weak	HAL_TIM_OC_MspDeInit
 705              		.syntax unified
 706              		.thumb
 707              		.thumb_func
 709              	HAL_TIM_OC_MspDeInit:
 710              		@ args = 0, pretend = 0, frame = 0
 711              		@ frame_needed = 0, uses_anonymous_args = 0
 712              		@ link register save eliminated.
 713 0000 7047     		bx	lr
 715              		.section	.text.HAL_TIM_OC_DeInit,"ax",%progbits
 716              		.align	1
 717              		.global	HAL_TIM_OC_DeInit
 718              		.syntax unified
 719              		.thumb
 720              		.thumb_func
 722              	HAL_TIM_OC_DeInit:
 723              		@ args = 0, pretend = 0, frame = 0
 724              		@ frame_needed = 0, uses_anonymous_args = 0
 725 0000 10B5     		push	{r4, lr}
ARM GAS  C:\Users\matve\AppData\Local\Temp\ccRkZNWM.s 			page 13


 726 0002 0446     		mov	r4, r0
 727 0004 0223     		movs	r3, #2
 728 0006 80F83D30 		strb	r3, [r0, #61]
 729 000a 0368     		ldr	r3, [r0]
 730 000c 196A     		ldr	r1, [r3, #32]
 731 000e 41F21112 		movw	r2, #4369
 732 0012 1142     		tst	r1, r2
 733 0014 08D1     		bne	.L70
 734 0016 196A     		ldr	r1, [r3, #32]
 735 0018 40F24442 		movw	r2, #1092
 736 001c 1142     		tst	r1, r2
 737 001e 03D1     		bne	.L70
 738 0020 1A68     		ldr	r2, [r3]
 739 0022 22F00102 		bic	r2, r2, #1
 740 0026 1A60     		str	r2, [r3]
 741              	.L70:
 742 0028 2046     		mov	r0, r4
 743 002a FFF7FEFF 		bl	HAL_TIM_OC_MspDeInit
 744 002e 0020     		movs	r0, #0
 745 0030 84F84600 		strb	r0, [r4, #70]
 746 0034 84F83E00 		strb	r0, [r4, #62]
 747 0038 84F83F00 		strb	r0, [r4, #63]
 748 003c 84F84000 		strb	r0, [r4, #64]
 749 0040 84F84100 		strb	r0, [r4, #65]
 750 0044 84F84200 		strb	r0, [r4, #66]
 751 0048 84F84300 		strb	r0, [r4, #67]
 752 004c 84F84400 		strb	r0, [r4, #68]
 753 0050 84F84500 		strb	r0, [r4, #69]
 754 0054 84F83D00 		strb	r0, [r4, #61]
 755 0058 84F83C00 		strb	r0, [r4, #60]
 756 005c 10BD     		pop	{r4, pc}
 758              		.section	.text.HAL_TIM_PWM_MspInit,"ax",%progbits
 759              		.align	1
 760              		.weak	HAL_TIM_PWM_MspInit
 761              		.syntax unified
 762              		.thumb
 763              		.thumb_func
 765              	HAL_TIM_PWM_MspInit:
 766              		@ args = 0, pretend = 0, frame = 0
 767              		@ frame_needed = 0, uses_anonymous_args = 0
 768              		@ link register save eliminated.
 769 0000 7047     		bx	lr
 771              		.section	.text.HAL_TIM_PWM_MspDeInit,"ax",%progbits
 772              		.align	1
 773              		.weak	HAL_TIM_PWM_MspDeInit
 774              		.syntax unified
 775              		.thumb
 776              		.thumb_func
 778              	HAL_TIM_PWM_MspDeInit:
 779              		@ args = 0, pretend = 0, frame = 0
 780              		@ frame_needed = 0, uses_anonymous_args = 0
 781              		@ link register save eliminated.
 782 0000 7047     		bx	lr
 784              		.section	.text.HAL_TIM_PWM_DeInit,"ax",%progbits
 785              		.align	1
 786              		.global	HAL_TIM_PWM_DeInit
 787              		.syntax unified
ARM GAS  C:\Users\matve\AppData\Local\Temp\ccRkZNWM.s 			page 14


 788              		.thumb
 789              		.thumb_func
 791              	HAL_TIM_PWM_DeInit:
 792              		@ args = 0, pretend = 0, frame = 0
 793              		@ frame_needed = 0, uses_anonymous_args = 0
 794 0000 10B5     		push	{r4, lr}
 795 0002 0446     		mov	r4, r0
 796 0004 0223     		movs	r3, #2
 797 0006 80F83D30 		strb	r3, [r0, #61]
 798 000a 0368     		ldr	r3, [r0]
 799 000c 196A     		ldr	r1, [r3, #32]
 800 000e 41F21112 		movw	r2, #4369
 801 0012 1142     		tst	r1, r2
 802 0014 08D1     		bne	.L75
 803 0016 196A     		ldr	r1, [r3, #32]
 804 0018 40F24442 		movw	r2, #1092
 805 001c 1142     		tst	r1, r2
 806 001e 03D1     		bne	.L75
 807 0020 1A68     		ldr	r2, [r3]
 808 0022 22F00102 		bic	r2, r2, #1
 809 0026 1A60     		str	r2, [r3]
 810              	.L75:
 811 0028 2046     		mov	r0, r4
 812 002a FFF7FEFF 		bl	HAL_TIM_PWM_MspDeInit
 813 002e 0020     		movs	r0, #0
 814 0030 84F84600 		strb	r0, [r4, #70]
 815 0034 84F83E00 		strb	r0, [r4, #62]
 816 0038 84F83F00 		strb	r0, [r4, #63]
 817 003c 84F84000 		strb	r0, [r4, #64]
 818 0040 84F84100 		strb	r0, [r4, #65]
 819 0044 84F84200 		strb	r0, [r4, #66]
 820 0048 84F84300 		strb	r0, [r4, #67]
 821 004c 84F84400 		strb	r0, [r4, #68]
 822 0050 84F84500 		strb	r0, [r4, #69]
 823 0054 84F83D00 		strb	r0, [r4, #61]
 824 0058 84F83C00 		strb	r0, [r4, #60]
 825 005c 10BD     		pop	{r4, pc}
 827              		.section	.text.HAL_TIM_IC_MspInit,"ax",%progbits
 828              		.align	1
 829              		.weak	HAL_TIM_IC_MspInit
 830              		.syntax unified
 831              		.thumb
 832              		.thumb_func
 834              	HAL_TIM_IC_MspInit:
 835              		@ args = 0, pretend = 0, frame = 0
 836              		@ frame_needed = 0, uses_anonymous_args = 0
 837              		@ link register save eliminated.
 838 0000 7047     		bx	lr
 840              		.section	.text.HAL_TIM_IC_MspDeInit,"ax",%progbits
 841              		.align	1
 842              		.weak	HAL_TIM_IC_MspDeInit
 843              		.syntax unified
 844              		.thumb
 845              		.thumb_func
 847              	HAL_TIM_IC_MspDeInit:
 848              		@ args = 0, pretend = 0, frame = 0
 849              		@ frame_needed = 0, uses_anonymous_args = 0
ARM GAS  C:\Users\matve\AppData\Local\Temp\ccRkZNWM.s 			page 15


 850              		@ link register save eliminated.
 851 0000 7047     		bx	lr
 853              		.section	.text.HAL_TIM_IC_DeInit,"ax",%progbits
 854              		.align	1
 855              		.global	HAL_TIM_IC_DeInit
 856              		.syntax unified
 857              		.thumb
 858              		.thumb_func
 860              	HAL_TIM_IC_DeInit:
 861              		@ args = 0, pretend = 0, frame = 0
 862              		@ frame_needed = 0, uses_anonymous_args = 0
 863 0000 10B5     		push	{r4, lr}
 864 0002 0446     		mov	r4, r0
 865 0004 0223     		movs	r3, #2
 866 0006 80F83D30 		strb	r3, [r0, #61]
 867 000a 0368     		ldr	r3, [r0]
 868 000c 196A     		ldr	r1, [r3, #32]
 869 000e 41F21112 		movw	r2, #4369
 870 0012 1142     		tst	r1, r2
 871 0014 08D1     		bne	.L80
 872 0016 196A     		ldr	r1, [r3, #32]
 873 0018 40F24442 		movw	r2, #1092
 874 001c 1142     		tst	r1, r2
 875 001e 03D1     		bne	.L80
 876 0020 1A68     		ldr	r2, [r3]
 877 0022 22F00102 		bic	r2, r2, #1
 878 0026 1A60     		str	r2, [r3]
 879              	.L80:
 880 0028 2046     		mov	r0, r4
 881 002a FFF7FEFF 		bl	HAL_TIM_IC_MspDeInit
 882 002e 0020     		movs	r0, #0
 883 0030 84F84600 		strb	r0, [r4, #70]
 884 0034 84F83E00 		strb	r0, [r4, #62]
 885 0038 84F83F00 		strb	r0, [r4, #63]
 886 003c 84F84000 		strb	r0, [r4, #64]
 887 0040 84F84100 		strb	r0, [r4, #65]
 888 0044 84F84200 		strb	r0, [r4, #66]
 889 0048 84F84300 		strb	r0, [r4, #67]
 890 004c 84F84400 		strb	r0, [r4, #68]
 891 0050 84F84500 		strb	r0, [r4, #69]
 892 0054 84F83D00 		strb	r0, [r4, #61]
 893 0058 84F83C00 		strb	r0, [r4, #60]
 894 005c 10BD     		pop	{r4, pc}
 896              		.section	.text.HAL_TIM_OnePulse_MspInit,"ax",%progbits
 897              		.align	1
 898              		.weak	HAL_TIM_OnePulse_MspInit
 899              		.syntax unified
 900              		.thumb
 901              		.thumb_func
 903              	HAL_TIM_OnePulse_MspInit:
 904              		@ args = 0, pretend = 0, frame = 0
 905              		@ frame_needed = 0, uses_anonymous_args = 0
 906              		@ link register save eliminated.
 907 0000 7047     		bx	lr
 909              		.section	.text.HAL_TIM_OnePulse_MspDeInit,"ax",%progbits
 910              		.align	1
 911              		.weak	HAL_TIM_OnePulse_MspDeInit
ARM GAS  C:\Users\matve\AppData\Local\Temp\ccRkZNWM.s 			page 16


 912              		.syntax unified
 913              		.thumb
 914              		.thumb_func
 916              	HAL_TIM_OnePulse_MspDeInit:
 917              		@ args = 0, pretend = 0, frame = 0
 918              		@ frame_needed = 0, uses_anonymous_args = 0
 919              		@ link register save eliminated.
 920 0000 7047     		bx	lr
 922              		.section	.text.HAL_TIM_OnePulse_DeInit,"ax",%progbits
 923              		.align	1
 924              		.global	HAL_TIM_OnePulse_DeInit
 925              		.syntax unified
 926              		.thumb
 927              		.thumb_func
 929              	HAL_TIM_OnePulse_DeInit:
 930              		@ args = 0, pretend = 0, frame = 0
 931              		@ frame_needed = 0, uses_anonymous_args = 0
 932 0000 10B5     		push	{r4, lr}
 933 0002 0446     		mov	r4, r0
 934 0004 0223     		movs	r3, #2
 935 0006 80F83D30 		strb	r3, [r0, #61]
 936 000a 0368     		ldr	r3, [r0]
 937 000c 196A     		ldr	r1, [r3, #32]
 938 000e 41F21112 		movw	r2, #4369
 939 0012 1142     		tst	r1, r2
 940 0014 08D1     		bne	.L85
 941 0016 196A     		ldr	r1, [r3, #32]
 942 0018 40F24442 		movw	r2, #1092
 943 001c 1142     		tst	r1, r2
 944 001e 03D1     		bne	.L85
 945 0020 1A68     		ldr	r2, [r3]
 946 0022 22F00102 		bic	r2, r2, #1
 947 0026 1A60     		str	r2, [r3]
 948              	.L85:
 949 0028 2046     		mov	r0, r4
 950 002a FFF7FEFF 		bl	HAL_TIM_OnePulse_MspDeInit
 951 002e 0020     		movs	r0, #0
 952 0030 84F84600 		strb	r0, [r4, #70]
 953 0034 84F83E00 		strb	r0, [r4, #62]
 954 0038 84F83F00 		strb	r0, [r4, #63]
 955 003c 84F84200 		strb	r0, [r4, #66]
 956 0040 84F84300 		strb	r0, [r4, #67]
 957 0044 84F83D00 		strb	r0, [r4, #61]
 958 0048 84F83C00 		strb	r0, [r4, #60]
 959 004c 10BD     		pop	{r4, pc}
 961              		.section	.text.HAL_TIM_Encoder_MspInit,"ax",%progbits
 962              		.align	1
 963              		.weak	HAL_TIM_Encoder_MspInit
 964              		.syntax unified
 965              		.thumb
 966              		.thumb_func
 968              	HAL_TIM_Encoder_MspInit:
 969              		@ args = 0, pretend = 0, frame = 0
 970              		@ frame_needed = 0, uses_anonymous_args = 0
 971              		@ link register save eliminated.
 972 0000 7047     		bx	lr
 974              		.section	.text.HAL_TIM_Encoder_MspDeInit,"ax",%progbits
ARM GAS  C:\Users\matve\AppData\Local\Temp\ccRkZNWM.s 			page 17


 975              		.align	1
 976              		.weak	HAL_TIM_Encoder_MspDeInit
 977              		.syntax unified
 978              		.thumb
 979              		.thumb_func
 981              	HAL_TIM_Encoder_MspDeInit:
 982              		@ args = 0, pretend = 0, frame = 0
 983              		@ frame_needed = 0, uses_anonymous_args = 0
 984              		@ link register save eliminated.
 985 0000 7047     		bx	lr
 987              		.section	.text.HAL_TIM_Encoder_DeInit,"ax",%progbits
 988              		.align	1
 989              		.global	HAL_TIM_Encoder_DeInit
 990              		.syntax unified
 991              		.thumb
 992              		.thumb_func
 994              	HAL_TIM_Encoder_DeInit:
 995              		@ args = 0, pretend = 0, frame = 0
 996              		@ frame_needed = 0, uses_anonymous_args = 0
 997 0000 10B5     		push	{r4, lr}
 998 0002 0446     		mov	r4, r0
 999 0004 0223     		movs	r3, #2
 1000 0006 80F83D30 		strb	r3, [r0, #61]
 1001 000a 0368     		ldr	r3, [r0]
 1002 000c 196A     		ldr	r1, [r3, #32]
 1003 000e 41F21112 		movw	r2, #4369
 1004 0012 1142     		tst	r1, r2
 1005 0014 08D1     		bne	.L90
 1006 0016 196A     		ldr	r1, [r3, #32]
 1007 0018 40F24442 		movw	r2, #1092
 1008 001c 1142     		tst	r1, r2
 1009 001e 03D1     		bne	.L90
 1010 0020 1A68     		ldr	r2, [r3]
 1011 0022 22F00102 		bic	r2, r2, #1
 1012 0026 1A60     		str	r2, [r3]
 1013              	.L90:
 1014 0028 2046     		mov	r0, r4
 1015 002a FFF7FEFF 		bl	HAL_TIM_Encoder_MspDeInit
 1016 002e 0020     		movs	r0, #0
 1017 0030 84F84600 		strb	r0, [r4, #70]
 1018 0034 84F83E00 		strb	r0, [r4, #62]
 1019 0038 84F83F00 		strb	r0, [r4, #63]
 1020 003c 84F84200 		strb	r0, [r4, #66]
 1021 0040 84F84300 		strb	r0, [r4, #67]
 1022 0044 84F83D00 		strb	r0, [r4, #61]
 1023 0048 84F83C00 		strb	r0, [r4, #60]
 1024 004c 10BD     		pop	{r4, pc}
 1026              		.section	.text.HAL_TIM_DMABurst_MultiWriteStart,"ax",%progbits
 1027              		.align	1
 1028              		.global	HAL_TIM_DMABurst_MultiWriteStart
 1029              		.syntax unified
 1030              		.thumb
 1031              		.thumb_func
 1033              	HAL_TIM_DMABurst_MultiWriteStart:
 1034              		@ args = 8, pretend = 0, frame = 0
 1035              		@ frame_needed = 0, uses_anonymous_args = 0
 1036 0000 70B5     		push	{r4, r5, r6, lr}
ARM GAS  C:\Users\matve\AppData\Local\Temp\ccRkZNWM.s 			page 18


 1037 0002 0446     		mov	r4, r0
 1038 0004 90F84600 		ldrb	r0, [r0, #70]	@ zero_extendqisi2
 1039 0008 C0B2     		uxtb	r0, r0
 1040 000a 0228     		cmp	r0, #2
 1041 000c 2FD0     		beq	.L93
 1042 000e 0E46     		mov	r6, r1
 1043 0010 1546     		mov	r5, r2
 1044 0012 1946     		mov	r1, r3
 1045 0014 94F84600 		ldrb	r0, [r4, #70]	@ zero_extendqisi2
 1046 0018 C0B2     		uxtb	r0, r0
 1047 001a 0128     		cmp	r0, #1
 1048 001c 28D0     		beq	.L113
 1049              	.L94:
 1050 001e B5F5006F 		cmp	r5, #2048
 1051 0022 74D0     		beq	.L96
 1052 0024 2FD8     		bhi	.L97
 1053 0026 B5F5007F 		cmp	r5, #512
 1054 002a 4AD0     		beq	.L98
 1055 002c B5F5806F 		cmp	r5, #1024
 1056 0030 5AD0     		beq	.L99
 1057 0032 B5F5807F 		cmp	r5, #256
 1058 0036 24D1     		bne	.L114
 1059 0038 236A     		ldr	r3, [r4, #32]
 1060 003a 534A     		ldr	r2, .L118
 1061 003c 9A62     		str	r2, [r3, #40]
 1062 003e 236A     		ldr	r3, [r4, #32]
 1063 0040 524A     		ldr	r2, .L118+4
 1064 0042 DA62     		str	r2, [r3, #44]
 1065 0044 236A     		ldr	r3, [r4, #32]
 1066 0046 524A     		ldr	r2, .L118+8
 1067 0048 1A63     		str	r2, [r3, #48]
 1068 004a 2268     		ldr	r2, [r4]
 1069 004c 059B     		ldr	r3, [sp, #20]
 1070 004e 4C32     		adds	r2, r2, #76
 1071 0050 206A     		ldr	r0, [r4, #32]
 1072 0052 FFF7FEFF 		bl	HAL_DMA_Start_IT
 1073 0056 0028     		cmp	r0, #0
 1074 0058 40F09380 		bne	.L115
 1075              	.L104:
 1076 005c 2368     		ldr	r3, [r4]
 1077 005e 049A     		ldr	r2, [sp, #16]
 1078 0060 1643     		orrs	r6, r6, r2
 1079 0062 9E64     		str	r6, [r3, #72]
 1080 0064 2268     		ldr	r2, [r4]
 1081 0066 D368     		ldr	r3, [r2, #12]
 1082 0068 2B43     		orrs	r3, r3, r5
 1083 006a D360     		str	r3, [r2, #12]
 1084 006c 0020     		movs	r0, #0
 1085              	.L93:
 1086 006e 70BD     		pop	{r4, r5, r6, pc}
 1087              	.L113:
 1088 0070 1BB1     		cbz	r3, .L116
 1089              	.L95:
 1090 0072 0223     		movs	r3, #2
 1091 0074 84F84630 		strb	r3, [r4, #70]
 1092 0078 D1E7     		b	.L94
 1093              	.L116:
ARM GAS  C:\Users\matve\AppData\Local\Temp\ccRkZNWM.s 			page 19


 1094 007a 049B     		ldr	r3, [sp, #16]
 1095 007c 002B     		cmp	r3, #0
 1096 007e F8D0     		beq	.L95
 1097 0080 F5E7     		b	.L93
 1098              	.L114:
 1099 0082 0120     		movs	r0, #1
 1100 0084 F3E7     		b	.L93
 1101              	.L97:
 1102 0086 B5F5005F 		cmp	r5, #8192
 1103 008a 53D0     		beq	.L101
 1104 008c B5F5804F 		cmp	r5, #16384
 1105 0090 63D0     		beq	.L102
 1106 0092 B5F5805F 		cmp	r5, #4096
 1107 0096 12D1     		bne	.L117
 1108 0098 236B     		ldr	r3, [r4, #48]
 1109 009a 3E4A     		ldr	r2, .L118+12
 1110 009c 9A62     		str	r2, [r3, #40]
 1111 009e 236B     		ldr	r3, [r4, #48]
 1112 00a0 3D4A     		ldr	r2, .L118+16
 1113 00a2 DA62     		str	r2, [r3, #44]
 1114 00a4 236B     		ldr	r3, [r4, #48]
 1115 00a6 3A4A     		ldr	r2, .L118+8
 1116 00a8 1A63     		str	r2, [r3, #48]
 1117 00aa 2268     		ldr	r2, [r4]
 1118 00ac 059B     		ldr	r3, [sp, #20]
 1119 00ae 4C32     		adds	r2, r2, #76
 1120 00b0 206B     		ldr	r0, [r4, #48]
 1121 00b2 FFF7FEFF 		bl	HAL_DMA_Start_IT
 1122 00b6 0028     		cmp	r0, #0
 1123 00b8 D0D0     		beq	.L104
 1124 00ba 0120     		movs	r0, #1
 1125 00bc D7E7     		b	.L93
 1126              	.L117:
 1127 00be 0120     		movs	r0, #1
 1128 00c0 D5E7     		b	.L93
 1129              	.L98:
 1130 00c2 636A     		ldr	r3, [r4, #36]
 1131 00c4 334A     		ldr	r2, .L118+12
 1132 00c6 9A62     		str	r2, [r3, #40]
 1133 00c8 636A     		ldr	r3, [r4, #36]
 1134 00ca 334A     		ldr	r2, .L118+16
 1135 00cc DA62     		str	r2, [r3, #44]
 1136 00ce 636A     		ldr	r3, [r4, #36]
 1137 00d0 2F4A     		ldr	r2, .L118+8
 1138 00d2 1A63     		str	r2, [r3, #48]
 1139 00d4 2268     		ldr	r2, [r4]
 1140 00d6 059B     		ldr	r3, [sp, #20]
 1141 00d8 4C32     		adds	r2, r2, #76
 1142 00da 606A     		ldr	r0, [r4, #36]
 1143 00dc FFF7FEFF 		bl	HAL_DMA_Start_IT
 1144 00e0 0028     		cmp	r0, #0
 1145 00e2 BBD0     		beq	.L104
 1146 00e4 0120     		movs	r0, #1
 1147 00e6 C2E7     		b	.L93
 1148              	.L99:
 1149 00e8 A36A     		ldr	r3, [r4, #40]
 1150 00ea 2A4A     		ldr	r2, .L118+12
ARM GAS  C:\Users\matve\AppData\Local\Temp\ccRkZNWM.s 			page 20


 1151 00ec 9A62     		str	r2, [r3, #40]
 1152 00ee A36A     		ldr	r3, [r4, #40]
 1153 00f0 294A     		ldr	r2, .L118+16
 1154 00f2 DA62     		str	r2, [r3, #44]
 1155 00f4 A36A     		ldr	r3, [r4, #40]
 1156 00f6 264A     		ldr	r2, .L118+8
 1157 00f8 1A63     		str	r2, [r3, #48]
 1158 00fa 2268     		ldr	r2, [r4]
 1159 00fc 059B     		ldr	r3, [sp, #20]
 1160 00fe 4C32     		adds	r2, r2, #76
 1161 0100 A06A     		ldr	r0, [r4, #40]
 1162 0102 FFF7FEFF 		bl	HAL_DMA_Start_IT
 1163 0106 0028     		cmp	r0, #0
 1164 0108 A8D0     		beq	.L104
 1165 010a 0120     		movs	r0, #1
 1166 010c AFE7     		b	.L93
 1167              	.L96:
 1168 010e E36A     		ldr	r3, [r4, #44]
 1169 0110 204A     		ldr	r2, .L118+12
 1170 0112 9A62     		str	r2, [r3, #40]
 1171 0114 E36A     		ldr	r3, [r4, #44]
 1172 0116 204A     		ldr	r2, .L118+16
 1173 0118 DA62     		str	r2, [r3, #44]
 1174 011a E36A     		ldr	r3, [r4, #44]
 1175 011c 1C4A     		ldr	r2, .L118+8
 1176 011e 1A63     		str	r2, [r3, #48]
 1177 0120 2268     		ldr	r2, [r4]
 1178 0122 059B     		ldr	r3, [sp, #20]
 1179 0124 4C32     		adds	r2, r2, #76
 1180 0126 E06A     		ldr	r0, [r4, #44]
 1181 0128 FFF7FEFF 		bl	HAL_DMA_Start_IT
 1182 012c 0028     		cmp	r0, #0
 1183 012e 95D0     		beq	.L104
 1184 0130 0120     		movs	r0, #1
 1185 0132 9CE7     		b	.L93
 1186              	.L101:
 1187 0134 636B     		ldr	r3, [r4, #52]
 1188 0136 194A     		ldr	r2, .L118+20
 1189 0138 9A62     		str	r2, [r3, #40]
 1190 013a 636B     		ldr	r3, [r4, #52]
 1191 013c 184A     		ldr	r2, .L118+24
 1192 013e DA62     		str	r2, [r3, #44]
 1193 0140 636B     		ldr	r3, [r4, #52]
 1194 0142 134A     		ldr	r2, .L118+8
 1195 0144 1A63     		str	r2, [r3, #48]
 1196 0146 2268     		ldr	r2, [r4]
 1197 0148 059B     		ldr	r3, [sp, #20]
 1198 014a 4C32     		adds	r2, r2, #76
 1199 014c 606B     		ldr	r0, [r4, #52]
 1200 014e FFF7FEFF 		bl	HAL_DMA_Start_IT
 1201 0152 0028     		cmp	r0, #0
 1202 0154 82D0     		beq	.L104
 1203 0156 0120     		movs	r0, #1
 1204 0158 89E7     		b	.L93
 1205              	.L102:
 1206 015a A36B     		ldr	r3, [r4, #56]
 1207 015c 114A     		ldr	r2, .L118+28
ARM GAS  C:\Users\matve\AppData\Local\Temp\ccRkZNWM.s 			page 21


 1208 015e 9A62     		str	r2, [r3, #40]
 1209 0160 A36B     		ldr	r3, [r4, #56]
 1210 0162 114A     		ldr	r2, .L118+32
 1211 0164 DA62     		str	r2, [r3, #44]
 1212 0166 A36B     		ldr	r3, [r4, #56]
 1213 0168 094A     		ldr	r2, .L118+8
 1214 016a 1A63     		str	r2, [r3, #48]
 1215 016c 2268     		ldr	r2, [r4]
 1216 016e 059B     		ldr	r3, [sp, #20]
 1217 0170 4C32     		adds	r2, r2, #76
 1218 0172 A06B     		ldr	r0, [r4, #56]
 1219 0174 FFF7FEFF 		bl	HAL_DMA_Start_IT
 1220 0178 0028     		cmp	r0, #0
 1221 017a 3FF46FAF 		beq	.L104
 1222 017e 0120     		movs	r0, #1
 1223 0180 75E7     		b	.L93
 1224              	.L115:
 1225 0182 0120     		movs	r0, #1
 1226 0184 73E7     		b	.L93
 1227              	.L119:
 1228 0186 00BF     		.align	2
 1229              	.L118:
 1230 0188 00000000 		.word	TIM_DMAPeriodElapsedCplt
 1231 018c 00000000 		.word	TIM_DMAPeriodElapsedHalfCplt
 1232 0190 00000000 		.word	TIM_DMAError
 1233 0194 00000000 		.word	TIM_DMADelayPulseCplt
 1234 0198 00000000 		.word	TIM_DMADelayPulseHalfCplt
 1235 019c 00000000 		.word	TIMEx_DMACommutationCplt
 1236 01a0 00000000 		.word	TIMEx_DMACommutationHalfCplt
 1237 01a4 00000000 		.word	TIM_DMATriggerCplt
 1238 01a8 00000000 		.word	TIM_DMATriggerHalfCplt
 1240              		.section	.text.HAL_TIM_DMABurst_WriteStart,"ax",%progbits
 1241              		.align	1
 1242              		.global	HAL_TIM_DMABurst_WriteStart
 1243              		.syntax unified
 1244              		.thumb
 1245              		.thumb_func
 1247              	HAL_TIM_DMABurst_WriteStart:
 1248              		@ args = 4, pretend = 0, frame = 0
 1249              		@ frame_needed = 0, uses_anonymous_args = 0
 1250 0000 30B5     		push	{r4, r5, lr}
 1251 0002 83B0     		sub	sp, sp, #12
 1252 0004 069D     		ldr	r5, [sp, #24]
 1253 0006 2C0A     		lsrs	r4, r5, #8
 1254 0008 0134     		adds	r4, r4, #1
 1255 000a 0194     		str	r4, [sp, #4]
 1256 000c 0095     		str	r5, [sp]
 1257 000e FFF7FEFF 		bl	HAL_TIM_DMABurst_MultiWriteStart
 1258 0012 03B0     		add	sp, sp, #12
 1259              		@ sp needed
 1260 0014 30BD     		pop	{r4, r5, pc}
 1262              		.section	.text.HAL_TIM_DMABurst_WriteStop,"ax",%progbits
 1263              		.align	1
 1264              		.global	HAL_TIM_DMABurst_WriteStop
 1265              		.syntax unified
 1266              		.thumb
 1267              		.thumb_func
ARM GAS  C:\Users\matve\AppData\Local\Temp\ccRkZNWM.s 			page 22


 1269              	HAL_TIM_DMABurst_WriteStop:
 1270              		@ args = 0, pretend = 0, frame = 0
 1271              		@ frame_needed = 0, uses_anonymous_args = 0
 1272 0000 38B5     		push	{r3, r4, r5, lr}
 1273 0002 0546     		mov	r5, r0
 1274 0004 0C46     		mov	r4, r1
 1275 0006 B1F5006F 		cmp	r1, #2048
 1276 000a 2FD0     		beq	.L123
 1277 000c 17D8     		bhi	.L124
 1278 000e B1F5007F 		cmp	r1, #512
 1279 0012 23D0     		beq	.L125
 1280 0014 B1F5806F 		cmp	r1, #1024
 1281 0018 24D0     		beq	.L126
 1282 001a B1F5807F 		cmp	r1, #256
 1283 001e 0CD1     		bne	.L134
 1284 0020 006A     		ldr	r0, [r0, #32]
 1285 0022 FFF7FEFF 		bl	HAL_DMA_Abort_IT
 1286              	.L132:
 1287 0026 2A68     		ldr	r2, [r5]
 1288 0028 D368     		ldr	r3, [r2, #12]
 1289 002a 23EA0403 		bic	r3, r3, r4
 1290 002e D360     		str	r3, [r2, #12]
 1291 0030 0123     		movs	r3, #1
 1292 0032 85F84630 		strb	r3, [r5, #70]
 1293 0036 0020     		movs	r0, #0
 1294              	.L128:
 1295 0038 38BD     		pop	{r3, r4, r5, pc}
 1296              	.L134:
 1297 003a 0120     		movs	r0, #1
 1298 003c FCE7     		b	.L128
 1299              	.L124:
 1300 003e B1F5005F 		cmp	r1, #8192
 1301 0042 17D0     		beq	.L129
 1302 0044 B1F5804F 		cmp	r1, #16384
 1303 0048 18D0     		beq	.L130
 1304 004a B1F5805F 		cmp	r1, #4096
 1305 004e 03D1     		bne	.L135
 1306 0050 006B     		ldr	r0, [r0, #48]
 1307 0052 FFF7FEFF 		bl	HAL_DMA_Abort_IT
 1308 0056 E6E7     		b	.L132
 1309              	.L135:
 1310 0058 0120     		movs	r0, #1
 1311 005a EDE7     		b	.L128
 1312              	.L125:
 1313 005c 406A     		ldr	r0, [r0, #36]
 1314 005e FFF7FEFF 		bl	HAL_DMA_Abort_IT
 1315 0062 E0E7     		b	.L132
 1316              	.L126:
 1317 0064 806A     		ldr	r0, [r0, #40]
 1318 0066 FFF7FEFF 		bl	HAL_DMA_Abort_IT
 1319 006a DCE7     		b	.L132
 1320              	.L123:
 1321 006c C06A     		ldr	r0, [r0, #44]
 1322 006e FFF7FEFF 		bl	HAL_DMA_Abort_IT
 1323 0072 D8E7     		b	.L132
 1324              	.L129:
 1325 0074 406B     		ldr	r0, [r0, #52]
ARM GAS  C:\Users\matve\AppData\Local\Temp\ccRkZNWM.s 			page 23


 1326 0076 FFF7FEFF 		bl	HAL_DMA_Abort_IT
 1327 007a D4E7     		b	.L132
 1328              	.L130:
 1329 007c 806B     		ldr	r0, [r0, #56]
 1330 007e FFF7FEFF 		bl	HAL_DMA_Abort_IT
 1331 0082 D0E7     		b	.L132
 1333              		.section	.text.HAL_TIM_DMABurst_MultiReadStart,"ax",%progbits
 1334              		.align	1
 1335              		.global	HAL_TIM_DMABurst_MultiReadStart
 1336              		.syntax unified
 1337              		.thumb
 1338              		.thumb_func
 1340              	HAL_TIM_DMABurst_MultiReadStart:
 1341              		@ args = 8, pretend = 0, frame = 0
 1342              		@ frame_needed = 0, uses_anonymous_args = 0
 1343 0000 70B5     		push	{r4, r5, r6, lr}
 1344 0002 0446     		mov	r4, r0
 1345 0004 90F84600 		ldrb	r0, [r0, #70]	@ zero_extendqisi2
 1346 0008 C0B2     		uxtb	r0, r0
 1347 000a 0228     		cmp	r0, #2
 1348 000c 2FD0     		beq	.L137
 1349 000e 0E46     		mov	r6, r1
 1350 0010 1546     		mov	r5, r2
 1351 0012 1A46     		mov	r2, r3
 1352 0014 94F84600 		ldrb	r0, [r4, #70]	@ zero_extendqisi2
 1353 0018 C0B2     		uxtb	r0, r0
 1354 001a 0128     		cmp	r0, #1
 1355 001c 28D0     		beq	.L157
 1356              	.L138:
 1357 001e B5F5006F 		cmp	r5, #2048
 1358 0022 74D0     		beq	.L140
 1359 0024 2FD8     		bhi	.L141
 1360 0026 B5F5007F 		cmp	r5, #512
 1361 002a 4AD0     		beq	.L142
 1362 002c B5F5806F 		cmp	r5, #1024
 1363 0030 5AD0     		beq	.L143
 1364 0032 B5F5807F 		cmp	r5, #256
 1365 0036 24D1     		bne	.L158
 1366 0038 236A     		ldr	r3, [r4, #32]
 1367 003a 5349     		ldr	r1, .L162
 1368 003c 9962     		str	r1, [r3, #40]
 1369 003e 236A     		ldr	r3, [r4, #32]
 1370 0040 5249     		ldr	r1, .L162+4
 1371 0042 D962     		str	r1, [r3, #44]
 1372 0044 236A     		ldr	r3, [r4, #32]
 1373 0046 5249     		ldr	r1, .L162+8
 1374 0048 1963     		str	r1, [r3, #48]
 1375 004a 2168     		ldr	r1, [r4]
 1376 004c 059B     		ldr	r3, [sp, #20]
 1377 004e 4C31     		adds	r1, r1, #76
 1378 0050 206A     		ldr	r0, [r4, #32]
 1379 0052 FFF7FEFF 		bl	HAL_DMA_Start_IT
 1380 0056 0028     		cmp	r0, #0
 1381 0058 40F09380 		bne	.L159
 1382              	.L148:
 1383 005c 2368     		ldr	r3, [r4]
 1384 005e 049A     		ldr	r2, [sp, #16]
ARM GAS  C:\Users\matve\AppData\Local\Temp\ccRkZNWM.s 			page 24


 1385 0060 1643     		orrs	r6, r6, r2
 1386 0062 9E64     		str	r6, [r3, #72]
 1387 0064 2268     		ldr	r2, [r4]
 1388 0066 D368     		ldr	r3, [r2, #12]
 1389 0068 2B43     		orrs	r3, r3, r5
 1390 006a D360     		str	r3, [r2, #12]
 1391 006c 0020     		movs	r0, #0
 1392              	.L137:
 1393 006e 70BD     		pop	{r4, r5, r6, pc}
 1394              	.L157:
 1395 0070 1BB1     		cbz	r3, .L160
 1396              	.L139:
 1397 0072 0223     		movs	r3, #2
 1398 0074 84F84630 		strb	r3, [r4, #70]
 1399 0078 D1E7     		b	.L138
 1400              	.L160:
 1401 007a 049B     		ldr	r3, [sp, #16]
 1402 007c 002B     		cmp	r3, #0
 1403 007e F8D0     		beq	.L139
 1404 0080 F5E7     		b	.L137
 1405              	.L158:
 1406 0082 0120     		movs	r0, #1
 1407 0084 F3E7     		b	.L137
 1408              	.L141:
 1409 0086 B5F5005F 		cmp	r5, #8192
 1410 008a 53D0     		beq	.L145
 1411 008c B5F5804F 		cmp	r5, #16384
 1412 0090 63D0     		beq	.L146
 1413 0092 B5F5805F 		cmp	r5, #4096
 1414 0096 12D1     		bne	.L161
 1415 0098 236B     		ldr	r3, [r4, #48]
 1416 009a 3E49     		ldr	r1, .L162+12
 1417 009c 9962     		str	r1, [r3, #40]
 1418 009e 236B     		ldr	r3, [r4, #48]
 1419 00a0 3D49     		ldr	r1, .L162+16
 1420 00a2 D962     		str	r1, [r3, #44]
 1421 00a4 236B     		ldr	r3, [r4, #48]
 1422 00a6 3A49     		ldr	r1, .L162+8
 1423 00a8 1963     		str	r1, [r3, #48]
 1424 00aa 2168     		ldr	r1, [r4]
 1425 00ac 059B     		ldr	r3, [sp, #20]
 1426 00ae 4C31     		adds	r1, r1, #76
 1427 00b0 206B     		ldr	r0, [r4, #48]
 1428 00b2 FFF7FEFF 		bl	HAL_DMA_Start_IT
 1429 00b6 0028     		cmp	r0, #0
 1430 00b8 D0D0     		beq	.L148
 1431 00ba 0120     		movs	r0, #1
 1432 00bc D7E7     		b	.L137
 1433              	.L161:
 1434 00be 0120     		movs	r0, #1
 1435 00c0 D5E7     		b	.L137
 1436              	.L142:
 1437 00c2 636A     		ldr	r3, [r4, #36]
 1438 00c4 3349     		ldr	r1, .L162+12
 1439 00c6 9962     		str	r1, [r3, #40]
 1440 00c8 636A     		ldr	r3, [r4, #36]
 1441 00ca 3349     		ldr	r1, .L162+16
ARM GAS  C:\Users\matve\AppData\Local\Temp\ccRkZNWM.s 			page 25


 1442 00cc D962     		str	r1, [r3, #44]
 1443 00ce 636A     		ldr	r3, [r4, #36]
 1444 00d0 2F49     		ldr	r1, .L162+8
 1445 00d2 1963     		str	r1, [r3, #48]
 1446 00d4 2168     		ldr	r1, [r4]
 1447 00d6 059B     		ldr	r3, [sp, #20]
 1448 00d8 4C31     		adds	r1, r1, #76
 1449 00da 606A     		ldr	r0, [r4, #36]
 1450 00dc FFF7FEFF 		bl	HAL_DMA_Start_IT
 1451 00e0 0028     		cmp	r0, #0
 1452 00e2 BBD0     		beq	.L148
 1453 00e4 0120     		movs	r0, #1
 1454 00e6 C2E7     		b	.L137
 1455              	.L143:
 1456 00e8 A36A     		ldr	r3, [r4, #40]
 1457 00ea 2A49     		ldr	r1, .L162+12
 1458 00ec 9962     		str	r1, [r3, #40]
 1459 00ee A36A     		ldr	r3, [r4, #40]
 1460 00f0 2949     		ldr	r1, .L162+16
 1461 00f2 D962     		str	r1, [r3, #44]
 1462 00f4 A36A     		ldr	r3, [r4, #40]
 1463 00f6 2649     		ldr	r1, .L162+8
 1464 00f8 1963     		str	r1, [r3, #48]
 1465 00fa 2168     		ldr	r1, [r4]
 1466 00fc 059B     		ldr	r3, [sp, #20]
 1467 00fe 4C31     		adds	r1, r1, #76
 1468 0100 A06A     		ldr	r0, [r4, #40]
 1469 0102 FFF7FEFF 		bl	HAL_DMA_Start_IT
 1470 0106 0028     		cmp	r0, #0
 1471 0108 A8D0     		beq	.L148
 1472 010a 0120     		movs	r0, #1
 1473 010c AFE7     		b	.L137
 1474              	.L140:
 1475 010e E36A     		ldr	r3, [r4, #44]
 1476 0110 2049     		ldr	r1, .L162+12
 1477 0112 9962     		str	r1, [r3, #40]
 1478 0114 E36A     		ldr	r3, [r4, #44]
 1479 0116 2049     		ldr	r1, .L162+16
 1480 0118 D962     		str	r1, [r3, #44]
 1481 011a E36A     		ldr	r3, [r4, #44]
 1482 011c 1C49     		ldr	r1, .L162+8
 1483 011e 1963     		str	r1, [r3, #48]
 1484 0120 2168     		ldr	r1, [r4]
 1485 0122 059B     		ldr	r3, [sp, #20]
 1486 0124 4C31     		adds	r1, r1, #76
 1487 0126 E06A     		ldr	r0, [r4, #44]
 1488 0128 FFF7FEFF 		bl	HAL_DMA_Start_IT
 1489 012c 0028     		cmp	r0, #0
 1490 012e 95D0     		beq	.L148
 1491 0130 0120     		movs	r0, #1
 1492 0132 9CE7     		b	.L137
 1493              	.L145:
 1494 0134 636B     		ldr	r3, [r4, #52]
 1495 0136 1949     		ldr	r1, .L162+20
 1496 0138 9962     		str	r1, [r3, #40]
 1497 013a 636B     		ldr	r3, [r4, #52]
 1498 013c 1849     		ldr	r1, .L162+24
ARM GAS  C:\Users\matve\AppData\Local\Temp\ccRkZNWM.s 			page 26


 1499 013e D962     		str	r1, [r3, #44]
 1500 0140 636B     		ldr	r3, [r4, #52]
 1501 0142 1349     		ldr	r1, .L162+8
 1502 0144 1963     		str	r1, [r3, #48]
 1503 0146 2168     		ldr	r1, [r4]
 1504 0148 059B     		ldr	r3, [sp, #20]
 1505 014a 4C31     		adds	r1, r1, #76
 1506 014c 606B     		ldr	r0, [r4, #52]
 1507 014e FFF7FEFF 		bl	HAL_DMA_Start_IT
 1508 0152 0028     		cmp	r0, #0
 1509 0154 82D0     		beq	.L148
 1510 0156 0120     		movs	r0, #1
 1511 0158 89E7     		b	.L137
 1512              	.L146:
 1513 015a A36B     		ldr	r3, [r4, #56]
 1514 015c 1149     		ldr	r1, .L162+28
 1515 015e 9962     		str	r1, [r3, #40]
 1516 0160 A36B     		ldr	r3, [r4, #56]
 1517 0162 1149     		ldr	r1, .L162+32
 1518 0164 D962     		str	r1, [r3, #44]
 1519 0166 A36B     		ldr	r3, [r4, #56]
 1520 0168 0949     		ldr	r1, .L162+8
 1521 016a 1963     		str	r1, [r3, #48]
 1522 016c 2168     		ldr	r1, [r4]
 1523 016e 059B     		ldr	r3, [sp, #20]
 1524 0170 4C31     		adds	r1, r1, #76
 1525 0172 A06B     		ldr	r0, [r4, #56]
 1526 0174 FFF7FEFF 		bl	HAL_DMA_Start_IT
 1527 0178 0028     		cmp	r0, #0
 1528 017a 3FF46FAF 		beq	.L148
 1529 017e 0120     		movs	r0, #1
 1530 0180 75E7     		b	.L137
 1531              	.L159:
 1532 0182 0120     		movs	r0, #1
 1533 0184 73E7     		b	.L137
 1534              	.L163:
 1535 0186 00BF     		.align	2
 1536              	.L162:
 1537 0188 00000000 		.word	TIM_DMAPeriodElapsedCplt
 1538 018c 00000000 		.word	TIM_DMAPeriodElapsedHalfCplt
 1539 0190 00000000 		.word	TIM_DMAError
 1540 0194 00000000 		.word	TIM_DMACaptureCplt
 1541 0198 00000000 		.word	TIM_DMACaptureHalfCplt
 1542 019c 00000000 		.word	TIMEx_DMACommutationCplt
 1543 01a0 00000000 		.word	TIMEx_DMACommutationHalfCplt
 1544 01a4 00000000 		.word	TIM_DMATriggerCplt
 1545 01a8 00000000 		.word	TIM_DMATriggerHalfCplt
 1547              		.section	.text.HAL_TIM_DMABurst_ReadStart,"ax",%progbits
 1548              		.align	1
 1549              		.global	HAL_TIM_DMABurst_ReadStart
 1550              		.syntax unified
 1551              		.thumb
 1552              		.thumb_func
 1554              	HAL_TIM_DMABurst_ReadStart:
 1555              		@ args = 4, pretend = 0, frame = 0
 1556              		@ frame_needed = 0, uses_anonymous_args = 0
 1557 0000 30B5     		push	{r4, r5, lr}
ARM GAS  C:\Users\matve\AppData\Local\Temp\ccRkZNWM.s 			page 27


 1558 0002 83B0     		sub	sp, sp, #12
 1559 0004 069D     		ldr	r5, [sp, #24]
 1560 0006 2C0A     		lsrs	r4, r5, #8
 1561 0008 0134     		adds	r4, r4, #1
 1562 000a 0194     		str	r4, [sp, #4]
 1563 000c 0095     		str	r5, [sp]
 1564 000e FFF7FEFF 		bl	HAL_TIM_DMABurst_MultiReadStart
 1565 0012 03B0     		add	sp, sp, #12
 1566              		@ sp needed
 1567 0014 30BD     		pop	{r4, r5, pc}
 1569              		.section	.text.HAL_TIM_DMABurst_ReadStop,"ax",%progbits
 1570              		.align	1
 1571              		.global	HAL_TIM_DMABurst_ReadStop
 1572              		.syntax unified
 1573              		.thumb
 1574              		.thumb_func
 1576              	HAL_TIM_DMABurst_ReadStop:
 1577              		@ args = 0, pretend = 0, frame = 0
 1578              		@ frame_needed = 0, uses_anonymous_args = 0
 1579 0000 38B5     		push	{r3, r4, r5, lr}
 1580 0002 0546     		mov	r5, r0
 1581 0004 0C46     		mov	r4, r1
 1582 0006 B1F5006F 		cmp	r1, #2048
 1583 000a 2FD0     		beq	.L167
 1584 000c 17D8     		bhi	.L168
 1585 000e B1F5007F 		cmp	r1, #512
 1586 0012 23D0     		beq	.L169
 1587 0014 B1F5806F 		cmp	r1, #1024
 1588 0018 24D0     		beq	.L170
 1589 001a B1F5807F 		cmp	r1, #256
 1590 001e 0CD1     		bne	.L178
 1591 0020 006A     		ldr	r0, [r0, #32]
 1592 0022 FFF7FEFF 		bl	HAL_DMA_Abort_IT
 1593              	.L176:
 1594 0026 2A68     		ldr	r2, [r5]
 1595 0028 D368     		ldr	r3, [r2, #12]
 1596 002a 23EA0403 		bic	r3, r3, r4
 1597 002e D360     		str	r3, [r2, #12]
 1598 0030 0123     		movs	r3, #1
 1599 0032 85F84630 		strb	r3, [r5, #70]
 1600 0036 0020     		movs	r0, #0
 1601              	.L172:
 1602 0038 38BD     		pop	{r3, r4, r5, pc}
 1603              	.L178:
 1604 003a 0120     		movs	r0, #1
 1605 003c FCE7     		b	.L172
 1606              	.L168:
 1607 003e B1F5005F 		cmp	r1, #8192
 1608 0042 17D0     		beq	.L173
 1609 0044 B1F5804F 		cmp	r1, #16384
 1610 0048 18D0     		beq	.L174
 1611 004a B1F5805F 		cmp	r1, #4096
 1612 004e 03D1     		bne	.L179
 1613 0050 006B     		ldr	r0, [r0, #48]
 1614 0052 FFF7FEFF 		bl	HAL_DMA_Abort_IT
 1615 0056 E6E7     		b	.L176
 1616              	.L179:
ARM GAS  C:\Users\matve\AppData\Local\Temp\ccRkZNWM.s 			page 28


 1617 0058 0120     		movs	r0, #1
 1618 005a EDE7     		b	.L172
 1619              	.L169:
 1620 005c 406A     		ldr	r0, [r0, #36]
 1621 005e FFF7FEFF 		bl	HAL_DMA_Abort_IT
 1622 0062 E0E7     		b	.L176
 1623              	.L170:
 1624 0064 806A     		ldr	r0, [r0, #40]
 1625 0066 FFF7FEFF 		bl	HAL_DMA_Abort_IT
 1626 006a DCE7     		b	.L176
 1627              	.L167:
 1628 006c C06A     		ldr	r0, [r0, #44]
 1629 006e FFF7FEFF 		bl	HAL_DMA_Abort_IT
 1630 0072 D8E7     		b	.L176
 1631              	.L173:
 1632 0074 406B     		ldr	r0, [r0, #52]
 1633 0076 FFF7FEFF 		bl	HAL_DMA_Abort_IT
 1634 007a D4E7     		b	.L176
 1635              	.L174:
 1636 007c 806B     		ldr	r0, [r0, #56]
 1637 007e FFF7FEFF 		bl	HAL_DMA_Abort_IT
 1638 0082 D0E7     		b	.L176
 1640              		.section	.text.HAL_TIM_GenerateEvent,"ax",%progbits
 1641              		.align	1
 1642              		.global	HAL_TIM_GenerateEvent
 1643              		.syntax unified
 1644              		.thumb
 1645              		.thumb_func
 1647              	HAL_TIM_GenerateEvent:
 1648              		@ args = 0, pretend = 0, frame = 0
 1649              		@ frame_needed = 0, uses_anonymous_args = 0
 1650              		@ link register save eliminated.
 1651 0000 90F83C30 		ldrb	r3, [r0, #60]	@ zero_extendqisi2
 1652 0004 012B     		cmp	r3, #1
 1653 0006 0ED0     		beq	.L182
 1654 0008 0123     		movs	r3, #1
 1655 000a 80F83C30 		strb	r3, [r0, #60]
 1656 000e 0222     		movs	r2, #2
 1657 0010 80F83D20 		strb	r2, [r0, #61]
 1658 0014 0268     		ldr	r2, [r0]
 1659 0016 5161     		str	r1, [r2, #20]
 1660 0018 80F83D30 		strb	r3, [r0, #61]
 1661 001c 0023     		movs	r3, #0
 1662 001e 80F83C30 		strb	r3, [r0, #60]
 1663 0022 1846     		mov	r0, r3
 1664 0024 7047     		bx	lr
 1665              	.L182:
 1666 0026 0220     		movs	r0, #2
 1667 0028 7047     		bx	lr
 1669              		.section	.text.HAL_TIM_ConfigTI1Input,"ax",%progbits
 1670              		.align	1
 1671              		.global	HAL_TIM_ConfigTI1Input
 1672              		.syntax unified
 1673              		.thumb
 1674              		.thumb_func
 1676              	HAL_TIM_ConfigTI1Input:
 1677              		@ args = 0, pretend = 0, frame = 0
ARM GAS  C:\Users\matve\AppData\Local\Temp\ccRkZNWM.s 			page 29


 1678              		@ frame_needed = 0, uses_anonymous_args = 0
 1679              		@ link register save eliminated.
 1680 0000 0268     		ldr	r2, [r0]
 1681 0002 5368     		ldr	r3, [r2, #4]
 1682 0004 23F08003 		bic	r3, r3, #128
 1683 0008 0B43     		orrs	r3, r3, r1
 1684 000a 5360     		str	r3, [r2, #4]
 1685 000c 0020     		movs	r0, #0
 1686 000e 7047     		bx	lr
 1688              		.section	.text.HAL_TIM_ReadCapturedValue,"ax",%progbits
 1689              		.align	1
 1690              		.global	HAL_TIM_ReadCapturedValue
 1691              		.syntax unified
 1692              		.thumb
 1693              		.thumb_func
 1695              	HAL_TIM_ReadCapturedValue:
 1696              		@ args = 0, pretend = 0, frame = 0
 1697              		@ frame_needed = 0, uses_anonymous_args = 0
 1698              		@ link register save eliminated.
 1699 0000 0C29     		cmp	r1, #12
 1700 0002 14D8     		bhi	.L191
 1701 0004 DFE801F0 		tbb	[pc, r1]
 1702              	.L187:
 1703 0008 07       		.byte	(.L190-.L187)/2
 1704 0009 13       		.byte	(.L191-.L187)/2
 1705 000a 13       		.byte	(.L191-.L187)/2
 1706 000b 13       		.byte	(.L191-.L187)/2
 1707 000c 0A       		.byte	(.L189-.L187)/2
 1708 000d 13       		.byte	(.L191-.L187)/2
 1709 000e 13       		.byte	(.L191-.L187)/2
 1710 000f 13       		.byte	(.L191-.L187)/2
 1711 0010 0D       		.byte	(.L188-.L187)/2
 1712 0011 13       		.byte	(.L191-.L187)/2
 1713 0012 13       		.byte	(.L191-.L187)/2
 1714 0013 13       		.byte	(.L191-.L187)/2
 1715 0014 10       		.byte	(.L186-.L187)/2
 1716 0015 00       		.p2align 1
 1717              	.L190:
 1718 0016 0368     		ldr	r3, [r0]
 1719 0018 586B     		ldr	r0, [r3, #52]
 1720 001a 7047     		bx	lr
 1721              	.L189:
 1722 001c 0368     		ldr	r3, [r0]
 1723 001e 986B     		ldr	r0, [r3, #56]
 1724 0020 7047     		bx	lr
 1725              	.L188:
 1726 0022 0368     		ldr	r3, [r0]
 1727 0024 D86B     		ldr	r0, [r3, #60]
 1728 0026 7047     		bx	lr
 1729              	.L186:
 1730 0028 0368     		ldr	r3, [r0]
 1731 002a 186C     		ldr	r0, [r3, #64]
 1732 002c 7047     		bx	lr
 1733              	.L191:
 1734 002e 0020     		movs	r0, #0
 1735 0030 7047     		bx	lr
 1737              		.section	.text.HAL_TIM_PeriodElapsedCallback,"ax",%progbits
ARM GAS  C:\Users\matve\AppData\Local\Temp\ccRkZNWM.s 			page 30


 1738              		.align	1
 1739              		.weak	HAL_TIM_PeriodElapsedCallback
 1740              		.syntax unified
 1741              		.thumb
 1742              		.thumb_func
 1744              	HAL_TIM_PeriodElapsedCallback:
 1745              		@ args = 0, pretend = 0, frame = 0
 1746              		@ frame_needed = 0, uses_anonymous_args = 0
 1747              		@ link register save eliminated.
 1748 0000 7047     		bx	lr
 1750              		.section	.text.TIM_DMAPeriodElapsedCplt,"ax",%progbits
 1751              		.align	1
 1752              		.syntax unified
 1753              		.thumb
 1754              		.thumb_func
 1756              	TIM_DMAPeriodElapsedCplt:
 1757              		@ args = 0, pretend = 0, frame = 0
 1758              		@ frame_needed = 0, uses_anonymous_args = 0
 1759 0000 08B5     		push	{r3, lr}
 1760 0002 406A     		ldr	r0, [r0, #36]
 1761 0004 036A     		ldr	r3, [r0, #32]
 1762 0006 9B69     		ldr	r3, [r3, #24]
 1763 0008 13B9     		cbnz	r3, .L194
 1764 000a 0123     		movs	r3, #1
 1765 000c 80F83D30 		strb	r3, [r0, #61]
 1766              	.L194:
 1767 0010 FFF7FEFF 		bl	HAL_TIM_PeriodElapsedCallback
 1768 0014 08BD     		pop	{r3, pc}
 1770              		.section	.text.HAL_TIM_PeriodElapsedHalfCpltCallback,"ax",%progbits
 1771              		.align	1
 1772              		.weak	HAL_TIM_PeriodElapsedHalfCpltCallback
 1773              		.syntax unified
 1774              		.thumb
 1775              		.thumb_func
 1777              	HAL_TIM_PeriodElapsedHalfCpltCallback:
 1778              		@ args = 0, pretend = 0, frame = 0
 1779              		@ frame_needed = 0, uses_anonymous_args = 0
 1780              		@ link register save eliminated.
 1781 0000 7047     		bx	lr
 1783              		.section	.text.TIM_DMAPeriodElapsedHalfCplt,"ax",%progbits
 1784              		.align	1
 1785              		.syntax unified
 1786              		.thumb
 1787              		.thumb_func
 1789              	TIM_DMAPeriodElapsedHalfCplt:
 1790              		@ args = 0, pretend = 0, frame = 0
 1791              		@ frame_needed = 0, uses_anonymous_args = 0
 1792 0000 08B5     		push	{r3, lr}
 1793 0002 406A     		ldr	r0, [r0, #36]
 1794 0004 FFF7FEFF 		bl	HAL_TIM_PeriodElapsedHalfCpltCallback
 1795 0008 08BD     		pop	{r3, pc}
 1797              		.section	.text.HAL_TIM_OC_DelayElapsedCallback,"ax",%progbits
 1798              		.align	1
 1799              		.weak	HAL_TIM_OC_DelayElapsedCallback
 1800              		.syntax unified
 1801              		.thumb
 1802              		.thumb_func
ARM GAS  C:\Users\matve\AppData\Local\Temp\ccRkZNWM.s 			page 31


 1804              	HAL_TIM_OC_DelayElapsedCallback:
 1805              		@ args = 0, pretend = 0, frame = 0
 1806              		@ frame_needed = 0, uses_anonymous_args = 0
 1807              		@ link register save eliminated.
 1808 0000 7047     		bx	lr
 1810              		.section	.text.HAL_TIM_IC_CaptureCallback,"ax",%progbits
 1811              		.align	1
 1812              		.weak	HAL_TIM_IC_CaptureCallback
 1813              		.syntax unified
 1814              		.thumb
 1815              		.thumb_func
 1817              	HAL_TIM_IC_CaptureCallback:
 1818              		@ args = 0, pretend = 0, frame = 0
 1819              		@ frame_needed = 0, uses_anonymous_args = 0
 1820              		@ link register save eliminated.
 1821 0000 7047     		bx	lr
 1823              		.section	.text.TIM_DMACaptureCplt,"ax",%progbits
 1824              		.align	1
 1825              		.global	TIM_DMACaptureCplt
 1826              		.syntax unified
 1827              		.thumb
 1828              		.thumb_func
 1830              	TIM_DMACaptureCplt:
 1831              		@ args = 0, pretend = 0, frame = 0
 1832              		@ frame_needed = 0, uses_anonymous_args = 0
 1833 0000 10B5     		push	{r4, lr}
 1834 0002 446A     		ldr	r4, [r0, #36]
 1835 0004 636A     		ldr	r3, [r4, #36]
 1836 0006 8342     		cmp	r3, r0
 1837 0008 0ED0     		beq	.L207
 1838 000a A36A     		ldr	r3, [r4, #40]
 1839 000c 8342     		cmp	r3, r0
 1840 000e 16D0     		beq	.L208
 1841 0010 E36A     		ldr	r3, [r4, #44]
 1842 0012 8342     		cmp	r3, r0
 1843 0014 1ED0     		beq	.L209
 1844 0016 236B     		ldr	r3, [r4, #48]
 1845 0018 8342     		cmp	r3, r0
 1846 001a 26D0     		beq	.L210
 1847              	.L203:
 1848 001c 2046     		mov	r0, r4
 1849 001e FFF7FEFF 		bl	HAL_TIM_IC_CaptureCallback
 1850 0022 0023     		movs	r3, #0
 1851 0024 2377     		strb	r3, [r4, #28]
 1852 0026 10BD     		pop	{r4, pc}
 1853              	.L207:
 1854 0028 0123     		movs	r3, #1
 1855 002a 2377     		strb	r3, [r4, #28]
 1856 002c 8369     		ldr	r3, [r0, #24]
 1857 002e 002B     		cmp	r3, #0
 1858 0030 F4D1     		bne	.L203
 1859 0032 0123     		movs	r3, #1
 1860 0034 84F83E30 		strb	r3, [r4, #62]
 1861 0038 84F84230 		strb	r3, [r4, #66]
 1862 003c EEE7     		b	.L203
 1863              	.L208:
 1864 003e 0223     		movs	r3, #2
ARM GAS  C:\Users\matve\AppData\Local\Temp\ccRkZNWM.s 			page 32


 1865 0040 2377     		strb	r3, [r4, #28]
 1866 0042 8369     		ldr	r3, [r0, #24]
 1867 0044 002B     		cmp	r3, #0
 1868 0046 E9D1     		bne	.L203
 1869 0048 0123     		movs	r3, #1
 1870 004a 84F83F30 		strb	r3, [r4, #63]
 1871 004e 84F84330 		strb	r3, [r4, #67]
 1872 0052 E3E7     		b	.L203
 1873              	.L209:
 1874 0054 0423     		movs	r3, #4
 1875 0056 2377     		strb	r3, [r4, #28]
 1876 0058 8369     		ldr	r3, [r0, #24]
 1877 005a 002B     		cmp	r3, #0
 1878 005c DED1     		bne	.L203
 1879 005e 0123     		movs	r3, #1
 1880 0060 84F84030 		strb	r3, [r4, #64]
 1881 0064 84F84430 		strb	r3, [r4, #68]
 1882 0068 D8E7     		b	.L203
 1883              	.L210:
 1884 006a 0823     		movs	r3, #8
 1885 006c 2377     		strb	r3, [r4, #28]
 1886 006e 8369     		ldr	r3, [r0, #24]
 1887 0070 002B     		cmp	r3, #0
 1888 0072 D3D1     		bne	.L203
 1889 0074 0123     		movs	r3, #1
 1890 0076 84F84130 		strb	r3, [r4, #65]
 1891 007a 84F84530 		strb	r3, [r4, #69]
 1892 007e CDE7     		b	.L203
 1894              		.section	.text.HAL_TIM_IC_CaptureHalfCpltCallback,"ax",%progbits
 1895              		.align	1
 1896              		.weak	HAL_TIM_IC_CaptureHalfCpltCallback
 1897              		.syntax unified
 1898              		.thumb
 1899              		.thumb_func
 1901              	HAL_TIM_IC_CaptureHalfCpltCallback:
 1902              		@ args = 0, pretend = 0, frame = 0
 1903              		@ frame_needed = 0, uses_anonymous_args = 0
 1904              		@ link register save eliminated.
 1905 0000 7047     		bx	lr
 1907              		.section	.text.TIM_DMACaptureHalfCplt,"ax",%progbits
 1908              		.align	1
 1909              		.global	TIM_DMACaptureHalfCplt
 1910              		.syntax unified
 1911              		.thumb
 1912              		.thumb_func
 1914              	TIM_DMACaptureHalfCplt:
 1915              		@ args = 0, pretend = 0, frame = 0
 1916              		@ frame_needed = 0, uses_anonymous_args = 0
 1917 0000 10B5     		push	{r4, lr}
 1918 0002 446A     		ldr	r4, [r0, #36]
 1919 0004 636A     		ldr	r3, [r4, #36]
 1920 0006 8342     		cmp	r3, r0
 1921 0008 0BD0     		beq	.L218
 1922 000a A36A     		ldr	r3, [r4, #40]
 1923 000c 8342     		cmp	r3, r0
 1924 000e 10D0     		beq	.L219
 1925 0010 E36A     		ldr	r3, [r4, #44]
ARM GAS  C:\Users\matve\AppData\Local\Temp\ccRkZNWM.s 			page 33


 1926 0012 8342     		cmp	r3, r0
 1927 0014 10D0     		beq	.L220
 1928 0016 236B     		ldr	r3, [r4, #48]
 1929 0018 8342     		cmp	r3, r0
 1930 001a 04D1     		bne	.L214
 1931 001c 0823     		movs	r3, #8
 1932 001e 2377     		strb	r3, [r4, #28]
 1933 0020 01E0     		b	.L214
 1934              	.L218:
 1935 0022 0123     		movs	r3, #1
 1936 0024 2377     		strb	r3, [r4, #28]
 1937              	.L214:
 1938 0026 2046     		mov	r0, r4
 1939 0028 FFF7FEFF 		bl	HAL_TIM_IC_CaptureHalfCpltCallback
 1940 002c 0023     		movs	r3, #0
 1941 002e 2377     		strb	r3, [r4, #28]
 1942 0030 10BD     		pop	{r4, pc}
 1943              	.L219:
 1944 0032 0223     		movs	r3, #2
 1945 0034 2377     		strb	r3, [r4, #28]
 1946 0036 F6E7     		b	.L214
 1947              	.L220:
 1948 0038 0423     		movs	r3, #4
 1949 003a 2377     		strb	r3, [r4, #28]
 1950 003c F3E7     		b	.L214
 1952              		.section	.text.HAL_TIM_PWM_PulseFinishedCallback,"ax",%progbits
 1953              		.align	1
 1954              		.weak	HAL_TIM_PWM_PulseFinishedCallback
 1955              		.syntax unified
 1956              		.thumb
 1957              		.thumb_func
 1959              	HAL_TIM_PWM_PulseFinishedCallback:
 1960              		@ args = 0, pretend = 0, frame = 0
 1961              		@ frame_needed = 0, uses_anonymous_args = 0
 1962              		@ link register save eliminated.
 1963 0000 7047     		bx	lr
 1965              		.section	.text.TIM_DMADelayPulseCplt,"ax",%progbits
 1966              		.align	1
 1967              		.syntax unified
 1968              		.thumb
 1969              		.thumb_func
 1971              	TIM_DMADelayPulseCplt:
 1972              		@ args = 0, pretend = 0, frame = 0
 1973              		@ frame_needed = 0, uses_anonymous_args = 0
 1974 0000 10B5     		push	{r4, lr}
 1975 0002 446A     		ldr	r4, [r0, #36]
 1976 0004 636A     		ldr	r3, [r4, #36]
 1977 0006 8342     		cmp	r3, r0
 1978 0008 0ED0     		beq	.L228
 1979 000a A36A     		ldr	r3, [r4, #40]
 1980 000c 8342     		cmp	r3, r0
 1981 000e 14D0     		beq	.L229
 1982 0010 E36A     		ldr	r3, [r4, #44]
 1983 0012 8342     		cmp	r3, r0
 1984 0014 1AD0     		beq	.L230
 1985 0016 236B     		ldr	r3, [r4, #48]
 1986 0018 8342     		cmp	r3, r0
ARM GAS  C:\Users\matve\AppData\Local\Temp\ccRkZNWM.s 			page 34


 1987 001a 20D0     		beq	.L231
 1988              	.L224:
 1989 001c 2046     		mov	r0, r4
 1990 001e FFF7FEFF 		bl	HAL_TIM_PWM_PulseFinishedCallback
 1991 0022 0023     		movs	r3, #0
 1992 0024 2377     		strb	r3, [r4, #28]
 1993 0026 10BD     		pop	{r4, pc}
 1994              	.L228:
 1995 0028 0123     		movs	r3, #1
 1996 002a 2377     		strb	r3, [r4, #28]
 1997 002c 8369     		ldr	r3, [r0, #24]
 1998 002e 002B     		cmp	r3, #0
 1999 0030 F4D1     		bne	.L224
 2000 0032 0123     		movs	r3, #1
 2001 0034 84F83E30 		strb	r3, [r4, #62]
 2002 0038 F0E7     		b	.L224
 2003              	.L229:
 2004 003a 0223     		movs	r3, #2
 2005 003c 2377     		strb	r3, [r4, #28]
 2006 003e 8369     		ldr	r3, [r0, #24]
 2007 0040 002B     		cmp	r3, #0
 2008 0042 EBD1     		bne	.L224
 2009 0044 0123     		movs	r3, #1
 2010 0046 84F83F30 		strb	r3, [r4, #63]
 2011 004a E7E7     		b	.L224
 2012              	.L230:
 2013 004c 0423     		movs	r3, #4
 2014 004e 2377     		strb	r3, [r4, #28]
 2015 0050 8369     		ldr	r3, [r0, #24]
 2016 0052 002B     		cmp	r3, #0
 2017 0054 E2D1     		bne	.L224
 2018 0056 0123     		movs	r3, #1
 2019 0058 84F84030 		strb	r3, [r4, #64]
 2020 005c DEE7     		b	.L224
 2021              	.L231:
 2022 005e 0823     		movs	r3, #8
 2023 0060 2377     		strb	r3, [r4, #28]
 2024 0062 8369     		ldr	r3, [r0, #24]
 2025 0064 002B     		cmp	r3, #0
 2026 0066 D9D1     		bne	.L224
 2027 0068 0123     		movs	r3, #1
 2028 006a 84F84130 		strb	r3, [r4, #65]
 2029 006e D5E7     		b	.L224
 2031              		.section	.text.HAL_TIM_PWM_PulseFinishedHalfCpltCallback,"ax",%progbits
 2032              		.align	1
 2033              		.weak	HAL_TIM_PWM_PulseFinishedHalfCpltCallback
 2034              		.syntax unified
 2035              		.thumb
 2036              		.thumb_func
 2038              	HAL_TIM_PWM_PulseFinishedHalfCpltCallback:
 2039              		@ args = 0, pretend = 0, frame = 0
 2040              		@ frame_needed = 0, uses_anonymous_args = 0
 2041              		@ link register save eliminated.
 2042 0000 7047     		bx	lr
 2044              		.section	.text.TIM_DMADelayPulseHalfCplt,"ax",%progbits
 2045              		.align	1
 2046              		.global	TIM_DMADelayPulseHalfCplt
ARM GAS  C:\Users\matve\AppData\Local\Temp\ccRkZNWM.s 			page 35


 2047              		.syntax unified
 2048              		.thumb
 2049              		.thumb_func
 2051              	TIM_DMADelayPulseHalfCplt:
 2052              		@ args = 0, pretend = 0, frame = 0
 2053              		@ frame_needed = 0, uses_anonymous_args = 0
 2054 0000 10B5     		push	{r4, lr}
 2055 0002 446A     		ldr	r4, [r0, #36]
 2056 0004 636A     		ldr	r3, [r4, #36]
 2057 0006 8342     		cmp	r3, r0
 2058 0008 0BD0     		beq	.L239
 2059 000a A36A     		ldr	r3, [r4, #40]
 2060 000c 8342     		cmp	r3, r0
 2061 000e 10D0     		beq	.L240
 2062 0010 E36A     		ldr	r3, [r4, #44]
 2063 0012 8342     		cmp	r3, r0
 2064 0014 10D0     		beq	.L241
 2065 0016 236B     		ldr	r3, [r4, #48]
 2066 0018 8342     		cmp	r3, r0
 2067 001a 04D1     		bne	.L235
 2068 001c 0823     		movs	r3, #8
 2069 001e 2377     		strb	r3, [r4, #28]
 2070 0020 01E0     		b	.L235
 2071              	.L239:
 2072 0022 0123     		movs	r3, #1
 2073 0024 2377     		strb	r3, [r4, #28]
 2074              	.L235:
 2075 0026 2046     		mov	r0, r4
 2076 0028 FFF7FEFF 		bl	HAL_TIM_PWM_PulseFinishedHalfCpltCallback
 2077 002c 0023     		movs	r3, #0
 2078 002e 2377     		strb	r3, [r4, #28]
 2079 0030 10BD     		pop	{r4, pc}
 2080              	.L240:
 2081 0032 0223     		movs	r3, #2
 2082 0034 2377     		strb	r3, [r4, #28]
 2083 0036 F6E7     		b	.L235
 2084              	.L241:
 2085 0038 0423     		movs	r3, #4
 2086 003a 2377     		strb	r3, [r4, #28]
 2087 003c F3E7     		b	.L235
 2089              		.section	.text.HAL_TIM_TriggerCallback,"ax",%progbits
 2090              		.align	1
 2091              		.weak	HAL_TIM_TriggerCallback
 2092              		.syntax unified
 2093              		.thumb
 2094              		.thumb_func
 2096              	HAL_TIM_TriggerCallback:
 2097              		@ args = 0, pretend = 0, frame = 0
 2098              		@ frame_needed = 0, uses_anonymous_args = 0
 2099              		@ link register save eliminated.
 2100 0000 7047     		bx	lr
 2102              		.section	.text.HAL_TIM_IRQHandler,"ax",%progbits
 2103              		.align	1
 2104              		.global	HAL_TIM_IRQHandler
 2105              		.syntax unified
 2106              		.thumb
 2107              		.thumb_func
ARM GAS  C:\Users\matve\AppData\Local\Temp\ccRkZNWM.s 			page 36


 2109              	HAL_TIM_IRQHandler:
 2110              		@ args = 0, pretend = 0, frame = 0
 2111              		@ frame_needed = 0, uses_anonymous_args = 0
 2112 0000 10B5     		push	{r4, lr}
 2113 0002 0446     		mov	r4, r0
 2114 0004 0368     		ldr	r3, [r0]
 2115 0006 1A69     		ldr	r2, [r3, #16]
 2116 0008 12F0020F 		tst	r2, #2
 2117 000c 11D0     		beq	.L244
 2118 000e DA68     		ldr	r2, [r3, #12]
 2119 0010 12F0020F 		tst	r2, #2
 2120 0014 0DD0     		beq	.L244
 2121 0016 6FF00202 		mvn	r2, #2
 2122 001a 1A61     		str	r2, [r3, #16]
 2123 001c 0123     		movs	r3, #1
 2124 001e 0377     		strb	r3, [r0, #28]
 2125 0020 0368     		ldr	r3, [r0]
 2126 0022 9B69     		ldr	r3, [r3, #24]
 2127 0024 13F0030F 		tst	r3, #3
 2128 0028 70D0     		beq	.L245
 2129 002a FFF7FEFF 		bl	HAL_TIM_IC_CaptureCallback
 2130              	.L246:
 2131 002e 0023     		movs	r3, #0
 2132 0030 2377     		strb	r3, [r4, #28]
 2133              	.L244:
 2134 0032 2368     		ldr	r3, [r4]
 2135 0034 1A69     		ldr	r2, [r3, #16]
 2136 0036 12F0040F 		tst	r2, #4
 2137 003a 12D0     		beq	.L247
 2138 003c DA68     		ldr	r2, [r3, #12]
 2139 003e 12F0040F 		tst	r2, #4
 2140 0042 0ED0     		beq	.L247
 2141 0044 6FF00402 		mvn	r2, #4
 2142 0048 1A61     		str	r2, [r3, #16]
 2143 004a 0223     		movs	r3, #2
 2144 004c 2377     		strb	r3, [r4, #28]
 2145 004e 2368     		ldr	r3, [r4]
 2146 0050 9B69     		ldr	r3, [r3, #24]
 2147 0052 13F4407F 		tst	r3, #768
 2148 0056 5FD0     		beq	.L248
 2149 0058 2046     		mov	r0, r4
 2150 005a FFF7FEFF 		bl	HAL_TIM_IC_CaptureCallback
 2151              	.L249:
 2152 005e 0023     		movs	r3, #0
 2153 0060 2377     		strb	r3, [r4, #28]
 2154              	.L247:
 2155 0062 2368     		ldr	r3, [r4]
 2156 0064 1A69     		ldr	r2, [r3, #16]
 2157 0066 12F0080F 		tst	r2, #8
 2158 006a 12D0     		beq	.L250
 2159 006c DA68     		ldr	r2, [r3, #12]
 2160 006e 12F0080F 		tst	r2, #8
 2161 0072 0ED0     		beq	.L250
 2162 0074 6FF00802 		mvn	r2, #8
 2163 0078 1A61     		str	r2, [r3, #16]
 2164 007a 0423     		movs	r3, #4
 2165 007c 2377     		strb	r3, [r4, #28]
ARM GAS  C:\Users\matve\AppData\Local\Temp\ccRkZNWM.s 			page 37


 2166 007e 2368     		ldr	r3, [r4]
 2167 0080 DB69     		ldr	r3, [r3, #28]
 2168 0082 13F0030F 		tst	r3, #3
 2169 0086 4ED0     		beq	.L251
 2170 0088 2046     		mov	r0, r4
 2171 008a FFF7FEFF 		bl	HAL_TIM_IC_CaptureCallback
 2172              	.L252:
 2173 008e 0023     		movs	r3, #0
 2174 0090 2377     		strb	r3, [r4, #28]
 2175              	.L250:
 2176 0092 2368     		ldr	r3, [r4]
 2177 0094 1A69     		ldr	r2, [r3, #16]
 2178 0096 12F0100F 		tst	r2, #16
 2179 009a 12D0     		beq	.L253
 2180 009c DA68     		ldr	r2, [r3, #12]
 2181 009e 12F0100F 		tst	r2, #16
 2182 00a2 0ED0     		beq	.L253
 2183 00a4 6FF01002 		mvn	r2, #16
 2184 00a8 1A61     		str	r2, [r3, #16]
 2185 00aa 0823     		movs	r3, #8
 2186 00ac 2377     		strb	r3, [r4, #28]
 2187 00ae 2368     		ldr	r3, [r4]
 2188 00b0 DB69     		ldr	r3, [r3, #28]
 2189 00b2 13F4407F 		tst	r3, #768
 2190 00b6 3DD0     		beq	.L254
 2191 00b8 2046     		mov	r0, r4
 2192 00ba FFF7FEFF 		bl	HAL_TIM_IC_CaptureCallback
 2193              	.L255:
 2194 00be 0023     		movs	r3, #0
 2195 00c0 2377     		strb	r3, [r4, #28]
 2196              	.L253:
 2197 00c2 2368     		ldr	r3, [r4]
 2198 00c4 1A69     		ldr	r2, [r3, #16]
 2199 00c6 12F0010F 		tst	r2, #1
 2200 00ca 03D0     		beq	.L256
 2201 00cc DA68     		ldr	r2, [r3, #12]
 2202 00ce 12F0010F 		tst	r2, #1
 2203 00d2 36D1     		bne	.L261
 2204              	.L256:
 2205 00d4 2368     		ldr	r3, [r4]
 2206 00d6 1A69     		ldr	r2, [r3, #16]
 2207 00d8 12F0800F 		tst	r2, #128
 2208 00dc 03D0     		beq	.L257
 2209 00de DA68     		ldr	r2, [r3, #12]
 2210 00e0 12F0800F 		tst	r2, #128
 2211 00e4 34D1     		bne	.L262
 2212              	.L257:
 2213 00e6 2368     		ldr	r3, [r4]
 2214 00e8 1A69     		ldr	r2, [r3, #16]
 2215 00ea 12F0400F 		tst	r2, #64
 2216 00ee 03D0     		beq	.L258
 2217 00f0 DA68     		ldr	r2, [r3, #12]
 2218 00f2 12F0400F 		tst	r2, #64
 2219 00f6 32D1     		bne	.L263
 2220              	.L258:
 2221 00f8 2368     		ldr	r3, [r4]
 2222 00fa 1A69     		ldr	r2, [r3, #16]
ARM GAS  C:\Users\matve\AppData\Local\Temp\ccRkZNWM.s 			page 38


 2223 00fc 12F0200F 		tst	r2, #32
 2224 0100 03D0     		beq	.L243
 2225 0102 DA68     		ldr	r2, [r3, #12]
 2226 0104 12F0200F 		tst	r2, #32
 2227 0108 30D1     		bne	.L264
 2228              	.L243:
 2229 010a 10BD     		pop	{r4, pc}
 2230              	.L245:
 2231 010c FFF7FEFF 		bl	HAL_TIM_OC_DelayElapsedCallback
 2232 0110 2046     		mov	r0, r4
 2233 0112 FFF7FEFF 		bl	HAL_TIM_PWM_PulseFinishedCallback
 2234 0116 8AE7     		b	.L246
 2235              	.L248:
 2236 0118 2046     		mov	r0, r4
 2237 011a FFF7FEFF 		bl	HAL_TIM_OC_DelayElapsedCallback
 2238 011e 2046     		mov	r0, r4
 2239 0120 FFF7FEFF 		bl	HAL_TIM_PWM_PulseFinishedCallback
 2240 0124 9BE7     		b	.L249
 2241              	.L251:
 2242 0126 2046     		mov	r0, r4
 2243 0128 FFF7FEFF 		bl	HAL_TIM_OC_DelayElapsedCallback
 2244 012c 2046     		mov	r0, r4
 2245 012e FFF7FEFF 		bl	HAL_TIM_PWM_PulseFinishedCallback
 2246 0132 ACE7     		b	.L252
 2247              	.L254:
 2248 0134 2046     		mov	r0, r4
 2249 0136 FFF7FEFF 		bl	HAL_TIM_OC_DelayElapsedCallback
 2250 013a 2046     		mov	r0, r4
 2251 013c FFF7FEFF 		bl	HAL_TIM_PWM_PulseFinishedCallback
 2252 0140 BDE7     		b	.L255
 2253              	.L261:
 2254 0142 6FF00102 		mvn	r2, #1
 2255 0146 1A61     		str	r2, [r3, #16]
 2256 0148 2046     		mov	r0, r4
 2257 014a FFF7FEFF 		bl	HAL_TIM_PeriodElapsedCallback
 2258 014e C1E7     		b	.L256
 2259              	.L262:
 2260 0150 6FF08002 		mvn	r2, #128
 2261 0154 1A61     		str	r2, [r3, #16]
 2262 0156 2046     		mov	r0, r4
 2263 0158 FFF7FEFF 		bl	HAL_TIMEx_BreakCallback
 2264 015c C3E7     		b	.L257
 2265              	.L263:
 2266 015e 6FF04002 		mvn	r2, #64
 2267 0162 1A61     		str	r2, [r3, #16]
 2268 0164 2046     		mov	r0, r4
 2269 0166 FFF7FEFF 		bl	HAL_TIM_TriggerCallback
 2270 016a C5E7     		b	.L258
 2271              	.L264:
 2272 016c 6FF02002 		mvn	r2, #32
 2273 0170 1A61     		str	r2, [r3, #16]
 2274 0172 2046     		mov	r0, r4
 2275 0174 FFF7FEFF 		bl	HAL_TIMEx_CommutCallback
 2276 0178 C7E7     		b	.L243
 2278              		.section	.text.TIM_DMATriggerCplt,"ax",%progbits
 2279              		.align	1
 2280              		.syntax unified
ARM GAS  C:\Users\matve\AppData\Local\Temp\ccRkZNWM.s 			page 39


 2281              		.thumb
 2282              		.thumb_func
 2284              	TIM_DMATriggerCplt:
 2285              		@ args = 0, pretend = 0, frame = 0
 2286              		@ frame_needed = 0, uses_anonymous_args = 0
 2287 0000 08B5     		push	{r3, lr}
 2288 0002 406A     		ldr	r0, [r0, #36]
 2289 0004 836B     		ldr	r3, [r0, #56]
 2290 0006 9B69     		ldr	r3, [r3, #24]
 2291 0008 13B9     		cbnz	r3, .L266
 2292 000a 0123     		movs	r3, #1
 2293 000c 80F83D30 		strb	r3, [r0, #61]
 2294              	.L266:
 2295 0010 FFF7FEFF 		bl	HAL_TIM_TriggerCallback
 2296 0014 08BD     		pop	{r3, pc}
 2298              		.section	.text.HAL_TIM_TriggerHalfCpltCallback,"ax",%progbits
 2299              		.align	1
 2300              		.weak	HAL_TIM_TriggerHalfCpltCallback
 2301              		.syntax unified
 2302              		.thumb
 2303              		.thumb_func
 2305              	HAL_TIM_TriggerHalfCpltCallback:
 2306              		@ args = 0, pretend = 0, frame = 0
 2307              		@ frame_needed = 0, uses_anonymous_args = 0
 2308              		@ link register save eliminated.
 2309 0000 7047     		bx	lr
 2311              		.section	.text.TIM_DMATriggerHalfCplt,"ax",%progbits
 2312              		.align	1
 2313              		.syntax unified
 2314              		.thumb
 2315              		.thumb_func
 2317              	TIM_DMATriggerHalfCplt:
 2318              		@ args = 0, pretend = 0, frame = 0
 2319              		@ frame_needed = 0, uses_anonymous_args = 0
 2320 0000 08B5     		push	{r3, lr}
 2321 0002 406A     		ldr	r0, [r0, #36]
 2322 0004 FFF7FEFF 		bl	HAL_TIM_TriggerHalfCpltCallback
 2323 0008 08BD     		pop	{r3, pc}
 2325              		.section	.text.HAL_TIM_ErrorCallback,"ax",%progbits
 2326              		.align	1
 2327              		.weak	HAL_TIM_ErrorCallback
 2328              		.syntax unified
 2329              		.thumb
 2330              		.thumb_func
 2332              	HAL_TIM_ErrorCallback:
 2333              		@ args = 0, pretend = 0, frame = 0
 2334              		@ frame_needed = 0, uses_anonymous_args = 0
 2335              		@ link register save eliminated.
 2336 0000 7047     		bx	lr
 2338              		.section	.text.TIM_DMAError,"ax",%progbits
 2339              		.align	1
 2340              		.global	TIM_DMAError
 2341              		.syntax unified
 2342              		.thumb
 2343              		.thumb_func
 2345              	TIM_DMAError:
 2346              		@ args = 0, pretend = 0, frame = 0
ARM GAS  C:\Users\matve\AppData\Local\Temp\ccRkZNWM.s 			page 40


 2347              		@ frame_needed = 0, uses_anonymous_args = 0
 2348 0000 10B5     		push	{r4, lr}
 2349 0002 446A     		ldr	r4, [r0, #36]
 2350 0004 636A     		ldr	r3, [r4, #36]
 2351 0006 8342     		cmp	r3, r0
 2352 0008 0CD0     		beq	.L279
 2353 000a A36A     		ldr	r3, [r4, #40]
 2354 000c 8342     		cmp	r3, r0
 2355 000e 13D0     		beq	.L280
 2356 0010 E36A     		ldr	r3, [r4, #44]
 2357 0012 8342     		cmp	r3, r0
 2358 0014 16D0     		beq	.L281
 2359 0016 236B     		ldr	r3, [r4, #48]
 2360 0018 8342     		cmp	r3, r0
 2361 001a 19D0     		beq	.L282
 2362 001c 0123     		movs	r3, #1
 2363 001e 84F83D30 		strb	r3, [r4, #61]
 2364 0022 03E0     		b	.L274
 2365              	.L279:
 2366 0024 0123     		movs	r3, #1
 2367 0026 2377     		strb	r3, [r4, #28]
 2368 0028 84F83E30 		strb	r3, [r4, #62]
 2369              	.L274:
 2370 002c 2046     		mov	r0, r4
 2371 002e FFF7FEFF 		bl	HAL_TIM_ErrorCallback
 2372 0032 0023     		movs	r3, #0
 2373 0034 2377     		strb	r3, [r4, #28]
 2374 0036 10BD     		pop	{r4, pc}
 2375              	.L280:
 2376 0038 0223     		movs	r3, #2
 2377 003a 2377     		strb	r3, [r4, #28]
 2378 003c 0123     		movs	r3, #1
 2379 003e 84F83F30 		strb	r3, [r4, #63]
 2380 0042 F3E7     		b	.L274
 2381              	.L281:
 2382 0044 0423     		movs	r3, #4
 2383 0046 2377     		strb	r3, [r4, #28]
 2384 0048 0123     		movs	r3, #1
 2385 004a 84F84030 		strb	r3, [r4, #64]
 2386 004e EDE7     		b	.L274
 2387              	.L282:
 2388 0050 0823     		movs	r3, #8
 2389 0052 2377     		strb	r3, [r4, #28]
 2390 0054 0123     		movs	r3, #1
 2391 0056 84F84130 		strb	r3, [r4, #65]
 2392 005a E7E7     		b	.L274
 2394              		.section	.text.HAL_TIM_Base_GetState,"ax",%progbits
 2395              		.align	1
 2396              		.global	HAL_TIM_Base_GetState
 2397              		.syntax unified
 2398              		.thumb
 2399              		.thumb_func
 2401              	HAL_TIM_Base_GetState:
 2402              		@ args = 0, pretend = 0, frame = 0
 2403              		@ frame_needed = 0, uses_anonymous_args = 0
 2404              		@ link register save eliminated.
 2405 0000 90F83D00 		ldrb	r0, [r0, #61]	@ zero_extendqisi2
ARM GAS  C:\Users\matve\AppData\Local\Temp\ccRkZNWM.s 			page 41


 2406 0004 7047     		bx	lr
 2408              		.section	.text.HAL_TIM_OC_GetState,"ax",%progbits
 2409              		.align	1
 2410              		.global	HAL_TIM_OC_GetState
 2411              		.syntax unified
 2412              		.thumb
 2413              		.thumb_func
 2415              	HAL_TIM_OC_GetState:
 2416              		@ args = 0, pretend = 0, frame = 0
 2417              		@ frame_needed = 0, uses_anonymous_args = 0
 2418              		@ link register save eliminated.
 2419 0000 90F83D00 		ldrb	r0, [r0, #61]	@ zero_extendqisi2
 2420 0004 7047     		bx	lr
 2422              		.section	.text.HAL_TIM_PWM_GetState,"ax",%progbits
 2423              		.align	1
 2424              		.global	HAL_TIM_PWM_GetState
 2425              		.syntax unified
 2426              		.thumb
 2427              		.thumb_func
 2429              	HAL_TIM_PWM_GetState:
 2430              		@ args = 0, pretend = 0, frame = 0
 2431              		@ frame_needed = 0, uses_anonymous_args = 0
 2432              		@ link register save eliminated.
 2433 0000 90F83D00 		ldrb	r0, [r0, #61]	@ zero_extendqisi2
 2434 0004 7047     		bx	lr
 2436              		.section	.text.HAL_TIM_IC_GetState,"ax",%progbits
 2437              		.align	1
 2438              		.global	HAL_TIM_IC_GetState
 2439              		.syntax unified
 2440              		.thumb
 2441              		.thumb_func
 2443              	HAL_TIM_IC_GetState:
 2444              		@ args = 0, pretend = 0, frame = 0
 2445              		@ frame_needed = 0, uses_anonymous_args = 0
 2446              		@ link register save eliminated.
 2447 0000 90F83D00 		ldrb	r0, [r0, #61]	@ zero_extendqisi2
 2448 0004 7047     		bx	lr
 2450              		.section	.text.HAL_TIM_OnePulse_GetState,"ax",%progbits
 2451              		.align	1
 2452              		.global	HAL_TIM_OnePulse_GetState
 2453              		.syntax unified
 2454              		.thumb
 2455              		.thumb_func
 2457              	HAL_TIM_OnePulse_GetState:
 2458              		@ args = 0, pretend = 0, frame = 0
 2459              		@ frame_needed = 0, uses_anonymous_args = 0
 2460              		@ link register save eliminated.
 2461 0000 90F83D00 		ldrb	r0, [r0, #61]	@ zero_extendqisi2
 2462 0004 7047     		bx	lr
 2464              		.section	.text.HAL_TIM_Encoder_GetState,"ax",%progbits
 2465              		.align	1
 2466              		.global	HAL_TIM_Encoder_GetState
 2467              		.syntax unified
 2468              		.thumb
 2469              		.thumb_func
 2471              	HAL_TIM_Encoder_GetState:
 2472              		@ args = 0, pretend = 0, frame = 0
ARM GAS  C:\Users\matve\AppData\Local\Temp\ccRkZNWM.s 			page 42


 2473              		@ frame_needed = 0, uses_anonymous_args = 0
 2474              		@ link register save eliminated.
 2475 0000 90F83D00 		ldrb	r0, [r0, #61]	@ zero_extendqisi2
 2476 0004 7047     		bx	lr
 2478              		.section	.text.HAL_TIM_GetActiveChannel,"ax",%progbits
 2479              		.align	1
 2480              		.global	HAL_TIM_GetActiveChannel
 2481              		.syntax unified
 2482              		.thumb
 2483              		.thumb_func
 2485              	HAL_TIM_GetActiveChannel:
 2486              		@ args = 0, pretend = 0, frame = 0
 2487              		@ frame_needed = 0, uses_anonymous_args = 0
 2488              		@ link register save eliminated.
 2489 0000 007F     		ldrb	r0, [r0, #28]	@ zero_extendqisi2
 2490 0002 7047     		bx	lr
 2492              		.section	.text.HAL_TIM_GetChannelState,"ax",%progbits
 2493              		.align	1
 2494              		.global	HAL_TIM_GetChannelState
 2495              		.syntax unified
 2496              		.thumb
 2497              		.thumb_func
 2499              	HAL_TIM_GetChannelState:
 2500              		@ args = 0, pretend = 0, frame = 0
 2501              		@ frame_needed = 0, uses_anonymous_args = 0
 2502              		@ link register save eliminated.
 2503 0000 19B9     		cbnz	r1, .L291
 2504 0002 90F83E00 		ldrb	r0, [r0, #62]	@ zero_extendqisi2
 2505 0006 C0B2     		uxtb	r0, r0
 2506 0008 7047     		bx	lr
 2507              	.L291:
 2508 000a 0429     		cmp	r1, #4
 2509 000c 05D0     		beq	.L295
 2510 000e 0829     		cmp	r1, #8
 2511 0010 07D0     		beq	.L296
 2512 0012 90F84100 		ldrb	r0, [r0, #65]	@ zero_extendqisi2
 2513 0016 C0B2     		uxtb	r0, r0
 2514 0018 7047     		bx	lr
 2515              	.L295:
 2516 001a 90F83F00 		ldrb	r0, [r0, #63]	@ zero_extendqisi2
 2517 001e C0B2     		uxtb	r0, r0
 2518 0020 7047     		bx	lr
 2519              	.L296:
 2520 0022 90F84000 		ldrb	r0, [r0, #64]	@ zero_extendqisi2
 2521 0026 C0B2     		uxtb	r0, r0
 2522 0028 7047     		bx	lr
 2524              		.section	.text.HAL_TIM_DMABurstState,"ax",%progbits
 2525              		.align	1
 2526              		.global	HAL_TIM_DMABurstState
 2527              		.syntax unified
 2528              		.thumb
 2529              		.thumb_func
 2531              	HAL_TIM_DMABurstState:
 2532              		@ args = 0, pretend = 0, frame = 0
 2533              		@ frame_needed = 0, uses_anonymous_args = 0
 2534              		@ link register save eliminated.
 2535 0000 90F84600 		ldrb	r0, [r0, #70]	@ zero_extendqisi2
ARM GAS  C:\Users\matve\AppData\Local\Temp\ccRkZNWM.s 			page 43


 2536 0004 7047     		bx	lr
 2538              		.section	.text.TIM_Base_SetConfig,"ax",%progbits
 2539              		.align	1
 2540              		.global	TIM_Base_SetConfig
 2541              		.syntax unified
 2542              		.thumb
 2543              		.thumb_func
 2545              	TIM_Base_SetConfig:
 2546              		@ args = 0, pretend = 0, frame = 0
 2547              		@ frame_needed = 0, uses_anonymous_args = 0
 2548              		@ link register save eliminated.
 2549 0000 0368     		ldr	r3, [r0]
 2550 0002 1B4A     		ldr	r2, .L305
 2551 0004 9042     		cmp	r0, r2
 2552 0006 0AD0     		beq	.L299
 2553 0008 B0F1804F 		cmp	r0, #1073741824
 2554 000c 07D0     		beq	.L299
 2555 000e A2F59432 		sub	r2, r2, #75776
 2556 0012 9042     		cmp	r0, r2
 2557 0014 03D0     		beq	.L299
 2558 0016 02F58062 		add	r2, r2, #1024
 2559 001a 9042     		cmp	r0, r2
 2560 001c 03D1     		bne	.L300
 2561              	.L299:
 2562 001e 23F07003 		bic	r3, r3, #112
 2563 0022 4A68     		ldr	r2, [r1, #4]
 2564 0024 1343     		orrs	r3, r3, r2
 2565              	.L300:
 2566 0026 124A     		ldr	r2, .L305
 2567 0028 9042     		cmp	r0, r2
 2568 002a 0AD0     		beq	.L301
 2569 002c B0F1804F 		cmp	r0, #1073741824
 2570 0030 07D0     		beq	.L301
 2571 0032 A2F59432 		sub	r2, r2, #75776
 2572 0036 9042     		cmp	r0, r2
 2573 0038 03D0     		beq	.L301
 2574 003a 02F58062 		add	r2, r2, #1024
 2575 003e 9042     		cmp	r0, r2
 2576 0040 03D1     		bne	.L302
 2577              	.L301:
 2578 0042 23F44073 		bic	r3, r3, #768
 2579 0046 CA68     		ldr	r2, [r1, #12]
 2580 0048 1343     		orrs	r3, r3, r2
 2581              	.L302:
 2582 004a 23F08003 		bic	r3, r3, #128
 2583 004e 4A69     		ldr	r2, [r1, #20]
 2584 0050 1343     		orrs	r3, r3, r2
 2585 0052 0360     		str	r3, [r0]
 2586 0054 8B68     		ldr	r3, [r1, #8]
 2587 0056 C362     		str	r3, [r0, #44]
 2588 0058 0B68     		ldr	r3, [r1]
 2589 005a 8362     		str	r3, [r0, #40]
 2590 005c 044B     		ldr	r3, .L305
 2591 005e 9842     		cmp	r0, r3
 2592 0060 02D0     		beq	.L304
 2593              	.L303:
 2594 0062 0123     		movs	r3, #1
ARM GAS  C:\Users\matve\AppData\Local\Temp\ccRkZNWM.s 			page 44


 2595 0064 4361     		str	r3, [r0, #20]
 2596 0066 7047     		bx	lr
 2597              	.L304:
 2598 0068 0B69     		ldr	r3, [r1, #16]
 2599 006a 0363     		str	r3, [r0, #48]
 2600 006c F9E7     		b	.L303
 2601              	.L306:
 2602 006e 00BF     		.align	2
 2603              	.L305:
 2604 0070 002C0140 		.word	1073818624
 2606              		.section	.text.HAL_TIM_Base_Init,"ax",%progbits
 2607              		.align	1
 2608              		.global	HAL_TIM_Base_Init
 2609              		.syntax unified
 2610              		.thumb
 2611              		.thumb_func
 2613              	HAL_TIM_Base_Init:
 2614              		@ args = 0, pretend = 0, frame = 0
 2615              		@ frame_needed = 0, uses_anonymous_args = 0
 2616 0000 40B3     		cbz	r0, .L310
 2617 0002 10B5     		push	{r4, lr}
 2618 0004 0446     		mov	r4, r0
 2619 0006 90F83D30 		ldrb	r3, [r0, #61]	@ zero_extendqisi2
 2620 000a F3B1     		cbz	r3, .L315
 2621              	.L309:
 2622 000c 0223     		movs	r3, #2
 2623 000e 84F83D30 		strb	r3, [r4, #61]
 2624 0012 2146     		mov	r1, r4
 2625 0014 51F8040B 		ldr	r0, [r1], #4
 2626 0018 FFF7FEFF 		bl	TIM_Base_SetConfig
 2627 001c 0123     		movs	r3, #1
 2628 001e 84F84630 		strb	r3, [r4, #70]
 2629 0022 84F83E30 		strb	r3, [r4, #62]
 2630 0026 84F83F30 		strb	r3, [r4, #63]
 2631 002a 84F84030 		strb	r3, [r4, #64]
 2632 002e 84F84130 		strb	r3, [r4, #65]
 2633 0032 84F84230 		strb	r3, [r4, #66]
 2634 0036 84F84330 		strb	r3, [r4, #67]
 2635 003a 84F84430 		strb	r3, [r4, #68]
 2636 003e 84F84530 		strb	r3, [r4, #69]
 2637 0042 84F83D30 		strb	r3, [r4, #61]
 2638 0046 0020     		movs	r0, #0
 2639 0048 10BD     		pop	{r4, pc}
 2640              	.L315:
 2641 004a 80F83C30 		strb	r3, [r0, #60]
 2642 004e FFF7FEFF 		bl	HAL_TIM_Base_MspInit
 2643 0052 DBE7     		b	.L309
 2644              	.L310:
 2645 0054 0120     		movs	r0, #1
 2646 0056 7047     		bx	lr
 2648              		.section	.text.HAL_TIM_OC_Init,"ax",%progbits
 2649              		.align	1
 2650              		.global	HAL_TIM_OC_Init
 2651              		.syntax unified
 2652              		.thumb
 2653              		.thumb_func
 2655              	HAL_TIM_OC_Init:
ARM GAS  C:\Users\matve\AppData\Local\Temp\ccRkZNWM.s 			page 45


 2656              		@ args = 0, pretend = 0, frame = 0
 2657              		@ frame_needed = 0, uses_anonymous_args = 0
 2658 0000 40B3     		cbz	r0, .L319
 2659 0002 10B5     		push	{r4, lr}
 2660 0004 0446     		mov	r4, r0
 2661 0006 90F83D30 		ldrb	r3, [r0, #61]	@ zero_extendqisi2
 2662 000a F3B1     		cbz	r3, .L324
 2663              	.L318:
 2664 000c 0223     		movs	r3, #2
 2665 000e 84F83D30 		strb	r3, [r4, #61]
 2666 0012 2146     		mov	r1, r4
 2667 0014 51F8040B 		ldr	r0, [r1], #4
 2668 0018 FFF7FEFF 		bl	TIM_Base_SetConfig
 2669 001c 0123     		movs	r3, #1
 2670 001e 84F84630 		strb	r3, [r4, #70]
 2671 0022 84F83E30 		strb	r3, [r4, #62]
 2672 0026 84F83F30 		strb	r3, [r4, #63]
 2673 002a 84F84030 		strb	r3, [r4, #64]
 2674 002e 84F84130 		strb	r3, [r4, #65]
 2675 0032 84F84230 		strb	r3, [r4, #66]
 2676 0036 84F84330 		strb	r3, [r4, #67]
 2677 003a 84F84430 		strb	r3, [r4, #68]
 2678 003e 84F84530 		strb	r3, [r4, #69]
 2679 0042 84F83D30 		strb	r3, [r4, #61]
 2680 0046 0020     		movs	r0, #0
 2681 0048 10BD     		pop	{r4, pc}
 2682              	.L324:
 2683 004a 80F83C30 		strb	r3, [r0, #60]
 2684 004e FFF7FEFF 		bl	HAL_TIM_OC_MspInit
 2685 0052 DBE7     		b	.L318
 2686              	.L319:
 2687 0054 0120     		movs	r0, #1
 2688 0056 7047     		bx	lr
 2690              		.section	.text.HAL_TIM_PWM_Init,"ax",%progbits
 2691              		.align	1
 2692              		.global	HAL_TIM_PWM_Init
 2693              		.syntax unified
 2694              		.thumb
 2695              		.thumb_func
 2697              	HAL_TIM_PWM_Init:
 2698              		@ args = 0, pretend = 0, frame = 0
 2699              		@ frame_needed = 0, uses_anonymous_args = 0
 2700 0000 40B3     		cbz	r0, .L328
 2701 0002 10B5     		push	{r4, lr}
 2702 0004 0446     		mov	r4, r0
 2703 0006 90F83D30 		ldrb	r3, [r0, #61]	@ zero_extendqisi2
 2704 000a F3B1     		cbz	r3, .L333
 2705              	.L327:
 2706 000c 0223     		movs	r3, #2
 2707 000e 84F83D30 		strb	r3, [r4, #61]
 2708 0012 2146     		mov	r1, r4
 2709 0014 51F8040B 		ldr	r0, [r1], #4
 2710 0018 FFF7FEFF 		bl	TIM_Base_SetConfig
 2711 001c 0123     		movs	r3, #1
 2712 001e 84F84630 		strb	r3, [r4, #70]
 2713 0022 84F83E30 		strb	r3, [r4, #62]
 2714 0026 84F83F30 		strb	r3, [r4, #63]
ARM GAS  C:\Users\matve\AppData\Local\Temp\ccRkZNWM.s 			page 46


 2715 002a 84F84030 		strb	r3, [r4, #64]
 2716 002e 84F84130 		strb	r3, [r4, #65]
 2717 0032 84F84230 		strb	r3, [r4, #66]
 2718 0036 84F84330 		strb	r3, [r4, #67]
 2719 003a 84F84430 		strb	r3, [r4, #68]
 2720 003e 84F84530 		strb	r3, [r4, #69]
 2721 0042 84F83D30 		strb	r3, [r4, #61]
 2722 0046 0020     		movs	r0, #0
 2723 0048 10BD     		pop	{r4, pc}
 2724              	.L333:
 2725 004a 80F83C30 		strb	r3, [r0, #60]
 2726 004e FFF7FEFF 		bl	HAL_TIM_PWM_MspInit
 2727 0052 DBE7     		b	.L327
 2728              	.L328:
 2729 0054 0120     		movs	r0, #1
 2730 0056 7047     		bx	lr
 2732              		.section	.text.HAL_TIM_IC_Init,"ax",%progbits
 2733              		.align	1
 2734              		.global	HAL_TIM_IC_Init
 2735              		.syntax unified
 2736              		.thumb
 2737              		.thumb_func
 2739              	HAL_TIM_IC_Init:
 2740              		@ args = 0, pretend = 0, frame = 0
 2741              		@ frame_needed = 0, uses_anonymous_args = 0
 2742 0000 40B3     		cbz	r0, .L337
 2743 0002 10B5     		push	{r4, lr}
 2744 0004 0446     		mov	r4, r0
 2745 0006 90F83D30 		ldrb	r3, [r0, #61]	@ zero_extendqisi2
 2746 000a F3B1     		cbz	r3, .L342
 2747              	.L336:
 2748 000c 0223     		movs	r3, #2
 2749 000e 84F83D30 		strb	r3, [r4, #61]
 2750 0012 2146     		mov	r1, r4
 2751 0014 51F8040B 		ldr	r0, [r1], #4
 2752 0018 FFF7FEFF 		bl	TIM_Base_SetConfig
 2753 001c 0123     		movs	r3, #1
 2754 001e 84F84630 		strb	r3, [r4, #70]
 2755 0022 84F83E30 		strb	r3, [r4, #62]
 2756 0026 84F83F30 		strb	r3, [r4, #63]
 2757 002a 84F84030 		strb	r3, [r4, #64]
 2758 002e 84F84130 		strb	r3, [r4, #65]
 2759 0032 84F84230 		strb	r3, [r4, #66]
 2760 0036 84F84330 		strb	r3, [r4, #67]
 2761 003a 84F84430 		strb	r3, [r4, #68]
 2762 003e 84F84530 		strb	r3, [r4, #69]
 2763 0042 84F83D30 		strb	r3, [r4, #61]
 2764 0046 0020     		movs	r0, #0
 2765 0048 10BD     		pop	{r4, pc}
 2766              	.L342:
 2767 004a 80F83C30 		strb	r3, [r0, #60]
 2768 004e FFF7FEFF 		bl	HAL_TIM_IC_MspInit
 2769 0052 DBE7     		b	.L336
 2770              	.L337:
 2771 0054 0120     		movs	r0, #1
 2772 0056 7047     		bx	lr
 2774              		.section	.text.HAL_TIM_OnePulse_Init,"ax",%progbits
ARM GAS  C:\Users\matve\AppData\Local\Temp\ccRkZNWM.s 			page 47


 2775              		.align	1
 2776              		.global	HAL_TIM_OnePulse_Init
 2777              		.syntax unified
 2778              		.thumb
 2779              		.thumb_func
 2781              	HAL_TIM_OnePulse_Init:
 2782              		@ args = 0, pretend = 0, frame = 0
 2783              		@ frame_needed = 0, uses_anonymous_args = 0
 2784 0000 50B3     		cbz	r0, .L346
 2785 0002 38B5     		push	{r3, r4, r5, lr}
 2786 0004 0D46     		mov	r5, r1
 2787 0006 0446     		mov	r4, r0
 2788 0008 90F83D30 		ldrb	r3, [r0, #61]	@ zero_extendqisi2
 2789 000c FBB1     		cbz	r3, .L351
 2790              	.L345:
 2791 000e 0223     		movs	r3, #2
 2792 0010 84F83D30 		strb	r3, [r4, #61]
 2793 0014 2146     		mov	r1, r4
 2794 0016 51F8040B 		ldr	r0, [r1], #4
 2795 001a FFF7FEFF 		bl	TIM_Base_SetConfig
 2796 001e 2268     		ldr	r2, [r4]
 2797 0020 1368     		ldr	r3, [r2]
 2798 0022 23F00803 		bic	r3, r3, #8
 2799 0026 1360     		str	r3, [r2]
 2800 0028 2268     		ldr	r2, [r4]
 2801 002a 1368     		ldr	r3, [r2]
 2802 002c 2B43     		orrs	r3, r3, r5
 2803 002e 1360     		str	r3, [r2]
 2804 0030 0123     		movs	r3, #1
 2805 0032 84F84630 		strb	r3, [r4, #70]
 2806 0036 84F83E30 		strb	r3, [r4, #62]
 2807 003a 84F83F30 		strb	r3, [r4, #63]
 2808 003e 84F84230 		strb	r3, [r4, #66]
 2809 0042 84F84330 		strb	r3, [r4, #67]
 2810 0046 84F83D30 		strb	r3, [r4, #61]
 2811 004a 0020     		movs	r0, #0
 2812 004c 38BD     		pop	{r3, r4, r5, pc}
 2813              	.L351:
 2814 004e 80F83C30 		strb	r3, [r0, #60]
 2815 0052 FFF7FEFF 		bl	HAL_TIM_OnePulse_MspInit
 2816 0056 DAE7     		b	.L345
 2817              	.L346:
 2818 0058 0120     		movs	r0, #1
 2819 005a 7047     		bx	lr
 2821              		.section	.text.HAL_TIM_Encoder_Init,"ax",%progbits
 2822              		.align	1
 2823              		.global	HAL_TIM_Encoder_Init
 2824              		.syntax unified
 2825              		.thumb
 2826              		.thumb_func
 2828              	HAL_TIM_Encoder_Init:
 2829              		@ args = 0, pretend = 0, frame = 0
 2830              		@ frame_needed = 0, uses_anonymous_args = 0
 2831 0000 0028     		cmp	r0, #0
 2832 0002 56D0     		beq	.L355
 2833 0004 70B5     		push	{r4, r5, r6, lr}
 2834 0006 0D46     		mov	r5, r1
ARM GAS  C:\Users\matve\AppData\Local\Temp\ccRkZNWM.s 			page 48


 2835 0008 0446     		mov	r4, r0
 2836 000a 90F83D30 		ldrb	r3, [r0, #61]	@ zero_extendqisi2
 2837 000e 002B     		cmp	r3, #0
 2838 0010 4AD0     		beq	.L360
 2839              	.L354:
 2840 0012 0223     		movs	r3, #2
 2841 0014 84F83D30 		strb	r3, [r4, #61]
 2842 0018 2268     		ldr	r2, [r4]
 2843 001a 9368     		ldr	r3, [r2, #8]
 2844 001c 23F48043 		bic	r3, r3, #16384
 2845 0020 23F00703 		bic	r3, r3, #7
 2846 0024 9360     		str	r3, [r2, #8]
 2847 0026 2146     		mov	r1, r4
 2848 0028 51F8040B 		ldr	r0, [r1], #4
 2849 002c FFF7FEFF 		bl	TIM_Base_SetConfig
 2850 0030 2168     		ldr	r1, [r4]
 2851 0032 8B68     		ldr	r3, [r1, #8]
 2852 0034 8A69     		ldr	r2, [r1, #24]
 2853 0036 0E6A     		ldr	r6, [r1, #32]
 2854 0038 2868     		ldr	r0, [r5]
 2855 003a 1843     		orrs	r0, r0, r3
 2856 003c 22F44072 		bic	r2, r2, #768
 2857 0040 22F00302 		bic	r2, r2, #3
 2858 0044 AB68     		ldr	r3, [r5, #8]
 2859 0046 D5F818C0 		ldr	ip, [r5, #24]
 2860 004a 43EA0C23 		orr	r3, r3, ip, lsl #8
 2861 004e 1343     		orrs	r3, r3, r2
 2862 0050 23F47C43 		bic	r3, r3, #64512
 2863 0054 23F0FC03 		bic	r3, r3, #252
 2864 0058 EA68     		ldr	r2, [r5, #12]
 2865 005a D5F81CC0 		ldr	ip, [r5, #28]
 2866 005e 42EA0C22 		orr	r2, r2, ip, lsl #8
 2867 0062 1A43     		orrs	r2, r2, r3
 2868 0064 2B6A     		ldr	r3, [r5, #32]
 2869 0066 1B03     		lsls	r3, r3, #12
 2870 0068 D5F810C0 		ldr	ip, [r5, #16]
 2871 006c 43EA0C13 		orr	r3, r3, ip, lsl #4
 2872 0070 1343     		orrs	r3, r3, r2
 2873 0072 26F02206 		bic	r6, r6, #34
 2874 0076 6A68     		ldr	r2, [r5, #4]
 2875 0078 6D69     		ldr	r5, [r5, #20]
 2876 007a 42EA0512 		orr	r2, r2, r5, lsl #4
 2877 007e 3243     		orrs	r2, r2, r6
 2878 0080 8860     		str	r0, [r1, #8]
 2879 0082 2168     		ldr	r1, [r4]
 2880 0084 8B61     		str	r3, [r1, #24]
 2881 0086 2368     		ldr	r3, [r4]
 2882 0088 1A62     		str	r2, [r3, #32]
 2883 008a 0123     		movs	r3, #1
 2884 008c 84F84630 		strb	r3, [r4, #70]
 2885 0090 84F83E30 		strb	r3, [r4, #62]
 2886 0094 84F83F30 		strb	r3, [r4, #63]
 2887 0098 84F84230 		strb	r3, [r4, #66]
 2888 009c 84F84330 		strb	r3, [r4, #67]
 2889 00a0 84F83D30 		strb	r3, [r4, #61]
 2890 00a4 0020     		movs	r0, #0
 2891 00a6 70BD     		pop	{r4, r5, r6, pc}
ARM GAS  C:\Users\matve\AppData\Local\Temp\ccRkZNWM.s 			page 49


 2892              	.L360:
 2893 00a8 80F83C30 		strb	r3, [r0, #60]
 2894 00ac FFF7FEFF 		bl	HAL_TIM_Encoder_MspInit
 2895 00b0 AFE7     		b	.L354
 2896              	.L355:
 2897 00b2 0120     		movs	r0, #1
 2898 00b4 7047     		bx	lr
 2900              		.section	.text.TIM_OC2_SetConfig,"ax",%progbits
 2901              		.align	1
 2902              		.global	TIM_OC2_SetConfig
 2903              		.syntax unified
 2904              		.thumb
 2905              		.thumb_func
 2907              	TIM_OC2_SetConfig:
 2908              		@ args = 0, pretend = 0, frame = 0
 2909              		@ frame_needed = 0, uses_anonymous_args = 0
 2910              		@ link register save eliminated.
 2911 0000 30B4     		push	{r4, r5}
 2912 0002 036A     		ldr	r3, [r0, #32]
 2913 0004 026A     		ldr	r2, [r0, #32]
 2914 0006 22F01002 		bic	r2, r2, #16
 2915 000a 0262     		str	r2, [r0, #32]
 2916 000c 4468     		ldr	r4, [r0, #4]
 2917 000e 8269     		ldr	r2, [r0, #24]
 2918 0010 22F4E642 		bic	r2, r2, #29440
 2919 0014 0D68     		ldr	r5, [r1]
 2920 0016 42EA0522 		orr	r2, r2, r5, lsl #8
 2921 001a 23F02003 		bic	r3, r3, #32
 2922 001e 8D68     		ldr	r5, [r1, #8]
 2923 0020 43EA0513 		orr	r3, r3, r5, lsl #4
 2924 0024 0C4D     		ldr	r5, .L365
 2925 0026 A842     		cmp	r0, r5
 2926 0028 06D0     		beq	.L364
 2927              	.L362:
 2928 002a 4460     		str	r4, [r0, #4]
 2929 002c 8261     		str	r2, [r0, #24]
 2930 002e 4A68     		ldr	r2, [r1, #4]
 2931 0030 8263     		str	r2, [r0, #56]
 2932 0032 0362     		str	r3, [r0, #32]
 2933 0034 30BC     		pop	{r4, r5}
 2934 0036 7047     		bx	lr
 2935              	.L364:
 2936 0038 23F08003 		bic	r3, r3, #128
 2937 003c CD68     		ldr	r5, [r1, #12]
 2938 003e 43EA0513 		orr	r3, r3, r5, lsl #4
 2939 0042 23F04003 		bic	r3, r3, #64
 2940 0046 24F44064 		bic	r4, r4, #3072
 2941 004a 4D69     		ldr	r5, [r1, #20]
 2942 004c 44EA8504 		orr	r4, r4, r5, lsl #2
 2943 0050 8D69     		ldr	r5, [r1, #24]
 2944 0052 44EA8504 		orr	r4, r4, r5, lsl #2
 2945 0056 E8E7     		b	.L362
 2946              	.L366:
 2947              		.align	2
 2948              	.L365:
 2949 0058 002C0140 		.word	1073818624
 2951              		.section	.text.HAL_TIM_OC_ConfigChannel,"ax",%progbits
ARM GAS  C:\Users\matve\AppData\Local\Temp\ccRkZNWM.s 			page 50


 2952              		.align	1
 2953              		.global	HAL_TIM_OC_ConfigChannel
 2954              		.syntax unified
 2955              		.thumb
 2956              		.thumb_func
 2958              	HAL_TIM_OC_ConfigChannel:
 2959              		@ args = 0, pretend = 0, frame = 0
 2960              		@ frame_needed = 0, uses_anonymous_args = 0
 2961 0000 90F83C30 		ldrb	r3, [r0, #60]	@ zero_extendqisi2
 2962 0004 012B     		cmp	r3, #1
 2963 0006 28D0     		beq	.L375
 2964 0008 10B5     		push	{r4, lr}
 2965 000a 0446     		mov	r4, r0
 2966 000c 0123     		movs	r3, #1
 2967 000e 80F83C30 		strb	r3, [r0, #60]
 2968 0012 0C2A     		cmp	r2, #12
 2969 0014 1CD8     		bhi	.L376
 2970 0016 DFE802F0 		tbb	[pc, r2]
 2971              	.L371:
 2972 001a 07       		.byte	(.L374-.L371)/2
 2973 001b 1B       		.byte	(.L376-.L371)/2
 2974 001c 1B       		.byte	(.L376-.L371)/2
 2975 001d 1B       		.byte	(.L376-.L371)/2
 2976 001e 0C       		.byte	(.L373-.L371)/2
 2977 001f 1B       		.byte	(.L376-.L371)/2
 2978 0020 1B       		.byte	(.L376-.L371)/2
 2979 0021 1B       		.byte	(.L376-.L371)/2
 2980 0022 11       		.byte	(.L372-.L371)/2
 2981 0023 1B       		.byte	(.L376-.L371)/2
 2982 0024 1B       		.byte	(.L376-.L371)/2
 2983 0025 1B       		.byte	(.L376-.L371)/2
 2984 0026 16       		.byte	(.L370-.L371)/2
 2985 0027 00       		.p2align 1
 2986              	.L374:
 2987 0028 0068     		ldr	r0, [r0]
 2988 002a FFF7FEFF 		bl	TIM_OC1_SetConfig
 2989 002e 0020     		movs	r0, #0
 2990 0030 0FE0     		b	.L369
 2991              	.L373:
 2992 0032 0068     		ldr	r0, [r0]
 2993 0034 FFF7FEFF 		bl	TIM_OC2_SetConfig
 2994 0038 0020     		movs	r0, #0
 2995 003a 0AE0     		b	.L369
 2996              	.L372:
 2997 003c 0068     		ldr	r0, [r0]
 2998 003e FFF7FEFF 		bl	TIM_OC3_SetConfig
 2999 0042 0020     		movs	r0, #0
 3000 0044 05E0     		b	.L369
 3001              	.L370:
 3002 0046 0068     		ldr	r0, [r0]
 3003 0048 FFF7FEFF 		bl	TIM_OC4_SetConfig
 3004 004c 0020     		movs	r0, #0
 3005 004e 00E0     		b	.L369
 3006              	.L376:
 3007 0050 0120     		movs	r0, #1
 3008              	.L369:
 3009 0052 0023     		movs	r3, #0
ARM GAS  C:\Users\matve\AppData\Local\Temp\ccRkZNWM.s 			page 51


 3010 0054 84F83C30 		strb	r3, [r4, #60]
 3011 0058 10BD     		pop	{r4, pc}
 3012              	.L375:
 3013 005a 0220     		movs	r0, #2
 3014 005c 7047     		bx	lr
 3016              		.section	.text.HAL_TIM_PWM_ConfigChannel,"ax",%progbits
 3017              		.align	1
 3018              		.global	HAL_TIM_PWM_ConfigChannel
 3019              		.syntax unified
 3020              		.thumb
 3021              		.thumb_func
 3023              	HAL_TIM_PWM_ConfigChannel:
 3024              		@ args = 0, pretend = 0, frame = 0
 3025              		@ frame_needed = 0, uses_anonymous_args = 0
 3026 0000 38B5     		push	{r3, r4, r5, lr}
 3027 0002 90F83C30 		ldrb	r3, [r0, #60]	@ zero_extendqisi2
 3028 0006 012B     		cmp	r3, #1
 3029 0008 66D0     		beq	.L389
 3030 000a 0446     		mov	r4, r0
 3031 000c 0D46     		mov	r5, r1
 3032 000e 0123     		movs	r3, #1
 3033 0010 80F83C30 		strb	r3, [r0, #60]
 3034 0014 0C2A     		cmp	r2, #12
 3035 0016 5AD8     		bhi	.L390
 3036 0018 DFE802F0 		tbb	[pc, r2]
 3037              	.L385:
 3038 001c 07       		.byte	(.L388-.L385)/2
 3039 001d 59       		.byte	(.L390-.L385)/2
 3040 001e 59       		.byte	(.L390-.L385)/2
 3041 001f 59       		.byte	(.L390-.L385)/2
 3042 0020 1B       		.byte	(.L387-.L385)/2
 3043 0021 59       		.byte	(.L390-.L385)/2
 3044 0022 59       		.byte	(.L390-.L385)/2
 3045 0023 59       		.byte	(.L390-.L385)/2
 3046 0024 30       		.byte	(.L386-.L385)/2
 3047 0025 59       		.byte	(.L390-.L385)/2
 3048 0026 59       		.byte	(.L390-.L385)/2
 3049 0027 59       		.byte	(.L390-.L385)/2
 3050 0028 44       		.byte	(.L384-.L385)/2
 3051 0029 00       		.p2align 1
 3052              	.L388:
 3053 002a 0068     		ldr	r0, [r0]
 3054 002c FFF7FEFF 		bl	TIM_OC1_SetConfig
 3055 0030 2268     		ldr	r2, [r4]
 3056 0032 9369     		ldr	r3, [r2, #24]
 3057 0034 43F00803 		orr	r3, r3, #8
 3058 0038 9361     		str	r3, [r2, #24]
 3059 003a 2268     		ldr	r2, [r4]
 3060 003c 9369     		ldr	r3, [r2, #24]
 3061 003e 23F00403 		bic	r3, r3, #4
 3062 0042 9361     		str	r3, [r2, #24]
 3063 0044 2268     		ldr	r2, [r4]
 3064 0046 9369     		ldr	r3, [r2, #24]
 3065 0048 2969     		ldr	r1, [r5, #16]
 3066 004a 0B43     		orrs	r3, r3, r1
 3067 004c 9361     		str	r3, [r2, #24]
 3068 004e 0020     		movs	r0, #0
ARM GAS  C:\Users\matve\AppData\Local\Temp\ccRkZNWM.s 			page 52


 3069 0050 3EE0     		b	.L383
 3070              	.L387:
 3071 0052 0068     		ldr	r0, [r0]
 3072 0054 FFF7FEFF 		bl	TIM_OC2_SetConfig
 3073 0058 2268     		ldr	r2, [r4]
 3074 005a 9369     		ldr	r3, [r2, #24]
 3075 005c 43F40063 		orr	r3, r3, #2048
 3076 0060 9361     		str	r3, [r2, #24]
 3077 0062 2268     		ldr	r2, [r4]
 3078 0064 9369     		ldr	r3, [r2, #24]
 3079 0066 23F48063 		bic	r3, r3, #1024
 3080 006a 9361     		str	r3, [r2, #24]
 3081 006c 2268     		ldr	r2, [r4]
 3082 006e 9369     		ldr	r3, [r2, #24]
 3083 0070 2969     		ldr	r1, [r5, #16]
 3084 0072 43EA0123 		orr	r3, r3, r1, lsl #8
 3085 0076 9361     		str	r3, [r2, #24]
 3086 0078 0020     		movs	r0, #0
 3087 007a 29E0     		b	.L383
 3088              	.L386:
 3089 007c 0068     		ldr	r0, [r0]
 3090 007e FFF7FEFF 		bl	TIM_OC3_SetConfig
 3091 0082 2268     		ldr	r2, [r4]
 3092 0084 D369     		ldr	r3, [r2, #28]
 3093 0086 43F00803 		orr	r3, r3, #8
 3094 008a D361     		str	r3, [r2, #28]
 3095 008c 2268     		ldr	r2, [r4]
 3096 008e D369     		ldr	r3, [r2, #28]
 3097 0090 23F00403 		bic	r3, r3, #4
 3098 0094 D361     		str	r3, [r2, #28]
 3099 0096 2268     		ldr	r2, [r4]
 3100 0098 D369     		ldr	r3, [r2, #28]
 3101 009a 2969     		ldr	r1, [r5, #16]
 3102 009c 0B43     		orrs	r3, r3, r1
 3103 009e D361     		str	r3, [r2, #28]
 3104 00a0 0020     		movs	r0, #0
 3105 00a2 15E0     		b	.L383
 3106              	.L384:
 3107 00a4 0068     		ldr	r0, [r0]
 3108 00a6 FFF7FEFF 		bl	TIM_OC4_SetConfig
 3109 00aa 2268     		ldr	r2, [r4]
 3110 00ac D369     		ldr	r3, [r2, #28]
 3111 00ae 43F40063 		orr	r3, r3, #2048
 3112 00b2 D361     		str	r3, [r2, #28]
 3113 00b4 2268     		ldr	r2, [r4]
 3114 00b6 D369     		ldr	r3, [r2, #28]
 3115 00b8 23F48063 		bic	r3, r3, #1024
 3116 00bc D361     		str	r3, [r2, #28]
 3117 00be 2268     		ldr	r2, [r4]
 3118 00c0 D369     		ldr	r3, [r2, #28]
 3119 00c2 2969     		ldr	r1, [r5, #16]
 3120 00c4 43EA0123 		orr	r3, r3, r1, lsl #8
 3121 00c8 D361     		str	r3, [r2, #28]
 3122 00ca 0020     		movs	r0, #0
 3123 00cc 00E0     		b	.L383
 3124              	.L390:
 3125 00ce 0120     		movs	r0, #1
ARM GAS  C:\Users\matve\AppData\Local\Temp\ccRkZNWM.s 			page 53


 3126              	.L383:
 3127 00d0 0023     		movs	r3, #0
 3128 00d2 84F83C30 		strb	r3, [r4, #60]
 3129              	.L382:
 3130 00d6 38BD     		pop	{r3, r4, r5, pc}
 3131              	.L389:
 3132 00d8 0220     		movs	r0, #2
 3133 00da FCE7     		b	.L382
 3135              		.section	.text.TIM_TI1_SetConfig,"ax",%progbits
 3136              		.align	1
 3137              		.global	TIM_TI1_SetConfig
 3138              		.syntax unified
 3139              		.thumb
 3140              		.thumb_func
 3142              	TIM_TI1_SetConfig:
 3143              		@ args = 0, pretend = 0, frame = 0
 3144              		@ frame_needed = 0, uses_anonymous_args = 0
 3145              		@ link register save eliminated.
 3146 0000 70B4     		push	{r4, r5, r6}
 3147 0002 056A     		ldr	r5, [r0, #32]
 3148 0004 046A     		ldr	r4, [r0, #32]
 3149 0006 24F00104 		bic	r4, r4, #1
 3150 000a 0462     		str	r4, [r0, #32]
 3151 000c 8469     		ldr	r4, [r0, #24]
 3152 000e 114E     		ldr	r6, .L396
 3153 0010 B042     		cmp	r0, r6
 3154 0012 0DD0     		beq	.L393
 3155 0014 B0F1804F 		cmp	r0, #1073741824
 3156 0018 0AD0     		beq	.L393
 3157 001a A6F59436 		sub	r6, r6, #75776
 3158 001e B042     		cmp	r0, r6
 3159 0020 06D0     		beq	.L393
 3160 0022 06F58066 		add	r6, r6, #1024
 3161 0026 B042     		cmp	r0, r6
 3162 0028 02D0     		beq	.L393
 3163 002a 44F00102 		orr	r2, r4, #1
 3164 002e 02E0     		b	.L394
 3165              	.L393:
 3166 0030 24F00304 		bic	r4, r4, #3
 3167 0034 2243     		orrs	r2, r2, r4
 3168              	.L394:
 3169 0036 22F0F002 		bic	r2, r2, #240
 3170 003a 1B01     		lsls	r3, r3, #4
 3171 003c DBB2     		uxtb	r3, r3
 3172 003e 1343     		orrs	r3, r3, r2
 3173 0040 25F00A02 		bic	r2, r5, #10
 3174 0044 01F00A01 		and	r1, r1, #10
 3175 0048 1143     		orrs	r1, r1, r2
 3176 004a 8361     		str	r3, [r0, #24]
 3177 004c 0162     		str	r1, [r0, #32]
 3178 004e 70BC     		pop	{r4, r5, r6}
 3179 0050 7047     		bx	lr
 3180              	.L397:
 3181 0052 00BF     		.align	2
 3182              	.L396:
 3183 0054 002C0140 		.word	1073818624
 3185              		.section	.text.HAL_TIM_IC_ConfigChannel,"ax",%progbits
ARM GAS  C:\Users\matve\AppData\Local\Temp\ccRkZNWM.s 			page 54


 3186              		.align	1
 3187              		.global	HAL_TIM_IC_ConfigChannel
 3188              		.syntax unified
 3189              		.thumb
 3190              		.thumb_func
 3192              	HAL_TIM_IC_ConfigChannel:
 3193              		@ args = 0, pretend = 0, frame = 0
 3194              		@ frame_needed = 0, uses_anonymous_args = 0
 3195 0000 38B5     		push	{r3, r4, r5, lr}
 3196 0002 90F83C30 		ldrb	r3, [r0, #60]	@ zero_extendqisi2
 3197 0006 012B     		cmp	r3, #1
 3198 0008 5ED0     		beq	.L406
 3199 000a 0446     		mov	r4, r0
 3200 000c 0D46     		mov	r5, r1
 3201 000e 0123     		movs	r3, #1
 3202 0010 80F83C30 		strb	r3, [r0, #60]
 3203 0014 0C2A     		cmp	r2, #12
 3204 0016 52D8     		bhi	.L407
 3205 0018 DFE802F0 		tbb	[pc, r2]
 3206              	.L402:
 3207 001c 07       		.byte	(.L405-.L402)/2
 3208 001d 51       		.byte	(.L407-.L402)/2
 3209 001e 51       		.byte	(.L407-.L402)/2
 3210 001f 51       		.byte	(.L407-.L402)/2
 3211 0020 19       		.byte	(.L404-.L402)/2
 3212 0021 51       		.byte	(.L407-.L402)/2
 3213 0022 51       		.byte	(.L407-.L402)/2
 3214 0023 51       		.byte	(.L407-.L402)/2
 3215 0024 2C       		.byte	(.L403-.L402)/2
 3216 0025 51       		.byte	(.L407-.L402)/2
 3217 0026 51       		.byte	(.L407-.L402)/2
 3218 0027 51       		.byte	(.L407-.L402)/2
 3219 0028 3E       		.byte	(.L401-.L402)/2
 3220 0029 00       		.p2align 1
 3221              	.L405:
 3222 002a CB68     		ldr	r3, [r1, #12]
 3223 002c 4A68     		ldr	r2, [r1, #4]
 3224 002e 0968     		ldr	r1, [r1]
 3225 0030 0068     		ldr	r0, [r0]
 3226 0032 FFF7FEFF 		bl	TIM_TI1_SetConfig
 3227 0036 2268     		ldr	r2, [r4]
 3228 0038 9369     		ldr	r3, [r2, #24]
 3229 003a 23F00C03 		bic	r3, r3, #12
 3230 003e 9361     		str	r3, [r2, #24]
 3231 0040 2268     		ldr	r2, [r4]
 3232 0042 9369     		ldr	r3, [r2, #24]
 3233 0044 A968     		ldr	r1, [r5, #8]
 3234 0046 0B43     		orrs	r3, r3, r1
 3235 0048 9361     		str	r3, [r2, #24]
 3236 004a 0020     		movs	r0, #0
 3237 004c 38E0     		b	.L400
 3238              	.L404:
 3239 004e CB68     		ldr	r3, [r1, #12]
 3240 0050 4A68     		ldr	r2, [r1, #4]
 3241 0052 0968     		ldr	r1, [r1]
 3242 0054 0068     		ldr	r0, [r0]
 3243 0056 FFF7FEFF 		bl	TIM_TI2_SetConfig
ARM GAS  C:\Users\matve\AppData\Local\Temp\ccRkZNWM.s 			page 55


 3244 005a 2268     		ldr	r2, [r4]
 3245 005c 9369     		ldr	r3, [r2, #24]
 3246 005e 23F44063 		bic	r3, r3, #3072
 3247 0062 9361     		str	r3, [r2, #24]
 3248 0064 2268     		ldr	r2, [r4]
 3249 0066 9369     		ldr	r3, [r2, #24]
 3250 0068 A968     		ldr	r1, [r5, #8]
 3251 006a 43EA0123 		orr	r3, r3, r1, lsl #8
 3252 006e 9361     		str	r3, [r2, #24]
 3253 0070 0020     		movs	r0, #0
 3254 0072 25E0     		b	.L400
 3255              	.L403:
 3256 0074 CB68     		ldr	r3, [r1, #12]
 3257 0076 4A68     		ldr	r2, [r1, #4]
 3258 0078 0968     		ldr	r1, [r1]
 3259 007a 0068     		ldr	r0, [r0]
 3260 007c FFF7FEFF 		bl	TIM_TI3_SetConfig
 3261 0080 2268     		ldr	r2, [r4]
 3262 0082 D369     		ldr	r3, [r2, #28]
 3263 0084 23F00C03 		bic	r3, r3, #12
 3264 0088 D361     		str	r3, [r2, #28]
 3265 008a 2268     		ldr	r2, [r4]
 3266 008c D369     		ldr	r3, [r2, #28]
 3267 008e A968     		ldr	r1, [r5, #8]
 3268 0090 0B43     		orrs	r3, r3, r1
 3269 0092 D361     		str	r3, [r2, #28]
 3270 0094 0020     		movs	r0, #0
 3271 0096 13E0     		b	.L400
 3272              	.L401:
 3273 0098 CB68     		ldr	r3, [r1, #12]
 3274 009a 4A68     		ldr	r2, [r1, #4]
 3275 009c 0968     		ldr	r1, [r1]
 3276 009e 0068     		ldr	r0, [r0]
 3277 00a0 FFF7FEFF 		bl	TIM_TI4_SetConfig
 3278 00a4 2268     		ldr	r2, [r4]
 3279 00a6 D369     		ldr	r3, [r2, #28]
 3280 00a8 23F44063 		bic	r3, r3, #3072
 3281 00ac D361     		str	r3, [r2, #28]
 3282 00ae 2268     		ldr	r2, [r4]
 3283 00b0 D369     		ldr	r3, [r2, #28]
 3284 00b2 A968     		ldr	r1, [r5, #8]
 3285 00b4 43EA0123 		orr	r3, r3, r1, lsl #8
 3286 00b8 D361     		str	r3, [r2, #28]
 3287 00ba 0020     		movs	r0, #0
 3288 00bc 00E0     		b	.L400
 3289              	.L407:
 3290 00be 0120     		movs	r0, #1
 3291              	.L400:
 3292 00c0 0023     		movs	r3, #0
 3293 00c2 84F83C30 		strb	r3, [r4, #60]
 3294              	.L399:
 3295 00c6 38BD     		pop	{r3, r4, r5, pc}
 3296              	.L406:
 3297 00c8 0220     		movs	r0, #2
 3298 00ca FCE7     		b	.L399
 3300              		.section	.text.HAL_TIM_OnePulse_ConfigChannel,"ax",%progbits
 3301              		.align	1
ARM GAS  C:\Users\matve\AppData\Local\Temp\ccRkZNWM.s 			page 56


 3302              		.global	HAL_TIM_OnePulse_ConfigChannel
 3303              		.syntax unified
 3304              		.thumb
 3305              		.thumb_func
 3307              	HAL_TIM_OnePulse_ConfigChannel:
 3308              		@ args = 0, pretend = 0, frame = 32
 3309              		@ frame_needed = 0, uses_anonymous_args = 0
 3310 0000 9A42     		cmp	r2, r3
 3311 0002 76D0     		beq	.L417
 3312 0004 70B5     		push	{r4, r5, r6, lr}
 3313 0006 88B0     		sub	sp, sp, #32
 3314 0008 0446     		mov	r4, r0
 3315 000a 0D46     		mov	r5, r1
 3316 000c 1E46     		mov	r6, r3
 3317 000e 90F83C30 		ldrb	r3, [r0, #60]	@ zero_extendqisi2
 3318 0012 012B     		cmp	r3, #1
 3319 0014 6FD0     		beq	.L418
 3320 0016 0123     		movs	r3, #1
 3321 0018 80F83C30 		strb	r3, [r0, #60]
 3322 001c 0223     		movs	r3, #2
 3323 001e 80F83D30 		strb	r3, [r0, #61]
 3324 0022 0B68     		ldr	r3, [r1]
 3325 0024 0193     		str	r3, [sp, #4]
 3326 0026 4B68     		ldr	r3, [r1, #4]
 3327 0028 0293     		str	r3, [sp, #8]
 3328 002a 8B68     		ldr	r3, [r1, #8]
 3329 002c 0393     		str	r3, [sp, #12]
 3330 002e CB68     		ldr	r3, [r1, #12]
 3331 0030 0493     		str	r3, [sp, #16]
 3332 0032 0B69     		ldr	r3, [r1, #16]
 3333 0034 0693     		str	r3, [sp, #24]
 3334 0036 4B69     		ldr	r3, [r1, #20]
 3335 0038 0793     		str	r3, [sp, #28]
 3336 003a 52B1     		cbz	r2, .L411
 3337 003c 042A     		cmp	r2, #4
 3338 003e 11D0     		beq	.L412
 3339 0040 0120     		movs	r0, #1
 3340              	.L413:
 3341 0042 0123     		movs	r3, #1
 3342 0044 84F83D30 		strb	r3, [r4, #61]
 3343 0048 0023     		movs	r3, #0
 3344 004a 84F83C30 		strb	r3, [r4, #60]
 3345              	.L410:
 3346 004e 08B0     		add	sp, sp, #32
 3347              		@ sp needed
 3348 0050 70BD     		pop	{r4, r5, r6, pc}
 3349              	.L411:
 3350 0052 01A9     		add	r1, sp, #4
 3351 0054 0068     		ldr	r0, [r0]
 3352 0056 FFF7FEFF 		bl	TIM_OC1_SetConfig
 3353              	.L414:
 3354 005a 46B1     		cbz	r6, .L415
 3355 005c 042E     		cmp	r6, #4
 3356 005e 27D0     		beq	.L416
 3357 0060 0120     		movs	r0, #1
 3358 0062 EEE7     		b	.L413
 3359              	.L412:
ARM GAS  C:\Users\matve\AppData\Local\Temp\ccRkZNWM.s 			page 57


 3360 0064 01A9     		add	r1, sp, #4
 3361 0066 0068     		ldr	r0, [r0]
 3362 0068 FFF7FEFF 		bl	TIM_OC2_SetConfig
 3363 006c F5E7     		b	.L414
 3364              	.L415:
 3365 006e 2B6A     		ldr	r3, [r5, #32]
 3366 0070 EA69     		ldr	r2, [r5, #28]
 3367 0072 A969     		ldr	r1, [r5, #24]
 3368 0074 2068     		ldr	r0, [r4]
 3369 0076 FFF7FEFF 		bl	TIM_TI1_SetConfig
 3370 007a 2268     		ldr	r2, [r4]
 3371 007c 9369     		ldr	r3, [r2, #24]
 3372 007e 23F00C03 		bic	r3, r3, #12
 3373 0082 9361     		str	r3, [r2, #24]
 3374 0084 2268     		ldr	r2, [r4]
 3375 0086 9368     		ldr	r3, [r2, #8]
 3376 0088 23F07003 		bic	r3, r3, #112
 3377 008c 9360     		str	r3, [r2, #8]
 3378 008e 2268     		ldr	r2, [r4]
 3379 0090 9368     		ldr	r3, [r2, #8]
 3380 0092 43F05003 		orr	r3, r3, #80
 3381 0096 9360     		str	r3, [r2, #8]
 3382 0098 2268     		ldr	r2, [r4]
 3383 009a 9368     		ldr	r3, [r2, #8]
 3384 009c 23F00703 		bic	r3, r3, #7
 3385 00a0 9360     		str	r3, [r2, #8]
 3386 00a2 2268     		ldr	r2, [r4]
 3387 00a4 9368     		ldr	r3, [r2, #8]
 3388 00a6 43F00603 		orr	r3, r3, #6
 3389 00aa 9360     		str	r3, [r2, #8]
 3390 00ac 0020     		movs	r0, #0
 3391 00ae C8E7     		b	.L413
 3392              	.L416:
 3393 00b0 2B6A     		ldr	r3, [r5, #32]
 3394 00b2 EA69     		ldr	r2, [r5, #28]
 3395 00b4 A969     		ldr	r1, [r5, #24]
 3396 00b6 2068     		ldr	r0, [r4]
 3397 00b8 FFF7FEFF 		bl	TIM_TI2_SetConfig
 3398 00bc 2268     		ldr	r2, [r4]
 3399 00be 9369     		ldr	r3, [r2, #24]
 3400 00c0 23F44063 		bic	r3, r3, #3072
 3401 00c4 9361     		str	r3, [r2, #24]
 3402 00c6 2268     		ldr	r2, [r4]
 3403 00c8 9368     		ldr	r3, [r2, #8]
 3404 00ca 23F07003 		bic	r3, r3, #112
 3405 00ce 9360     		str	r3, [r2, #8]
 3406 00d0 2268     		ldr	r2, [r4]
 3407 00d2 9368     		ldr	r3, [r2, #8]
 3408 00d4 43F06003 		orr	r3, r3, #96
 3409 00d8 9360     		str	r3, [r2, #8]
 3410 00da 2268     		ldr	r2, [r4]
 3411 00dc 9368     		ldr	r3, [r2, #8]
 3412 00de 23F00703 		bic	r3, r3, #7
 3413 00e2 9360     		str	r3, [r2, #8]
 3414 00e4 2268     		ldr	r2, [r4]
 3415 00e6 9368     		ldr	r3, [r2, #8]
 3416 00e8 43F00603 		orr	r3, r3, #6
ARM GAS  C:\Users\matve\AppData\Local\Temp\ccRkZNWM.s 			page 58


 3417 00ec 9360     		str	r3, [r2, #8]
 3418 00ee 0020     		movs	r0, #0
 3419 00f0 A7E7     		b	.L413
 3420              	.L417:
 3421 00f2 0120     		movs	r0, #1
 3422 00f4 7047     		bx	lr
 3423              	.L418:
 3424 00f6 0220     		movs	r0, #2
 3425 00f8 A9E7     		b	.L410
 3427              		.section	.text.TIM_ETR_SetConfig,"ax",%progbits
 3428              		.align	1
 3429              		.global	TIM_ETR_SetConfig
 3430              		.syntax unified
 3431              		.thumb
 3432              		.thumb_func
 3434              	TIM_ETR_SetConfig:
 3435              		@ args = 0, pretend = 0, frame = 0
 3436              		@ frame_needed = 0, uses_anonymous_args = 0
 3437              		@ link register save eliminated.
 3438 0000 10B4     		push	{r4}
 3439 0002 8468     		ldr	r4, [r0, #8]
 3440 0004 24F47F4C 		bic	ip, r4, #65280
 3441 0008 42EA0322 		orr	r2, r2, r3, lsl #8
 3442 000c 0A43     		orrs	r2, r2, r1
 3443 000e 42EA0C02 		orr	r2, r2, ip
 3444 0012 8260     		str	r2, [r0, #8]
 3445 0014 10BC     		pop	{r4}
 3446 0016 7047     		bx	lr
 3448              		.section	.text.HAL_TIM_ConfigOCrefClear,"ax",%progbits
 3449              		.align	1
 3450              		.global	HAL_TIM_ConfigOCrefClear
 3451              		.syntax unified
 3452              		.thumb
 3453              		.thumb_func
 3455              	HAL_TIM_ConfigOCrefClear:
 3456              		@ args = 0, pretend = 0, frame = 0
 3457              		@ frame_needed = 0, uses_anonymous_args = 0
 3458 0000 90F83C30 		ldrb	r3, [r0, #60]	@ zero_extendqisi2
 3459 0004 012B     		cmp	r3, #1
 3460 0006 76D0     		beq	.L441
 3461 0008 70B5     		push	{r4, r5, r6, lr}
 3462 000a 0446     		mov	r4, r0
 3463 000c 0D46     		mov	r5, r1
 3464 000e 1646     		mov	r6, r2
 3465 0010 0123     		movs	r3, #1
 3466 0012 80F83C30 		strb	r3, [r0, #60]
 3467 0016 0223     		movs	r3, #2
 3468 0018 80F83D30 		strb	r3, [r0, #61]
 3469 001c 4B68     		ldr	r3, [r1, #4]
 3470 001e 4BB1     		cbz	r3, .L427
 3471 0020 012B     		cmp	r3, #1
 3472 0022 17D0     		beq	.L428
 3473 0024 0120     		movs	r0, #1
 3474              	.L429:
 3475 0026 0123     		movs	r3, #1
 3476 0028 84F83D30 		strb	r3, [r4, #61]
 3477 002c 0023     		movs	r3, #0
ARM GAS  C:\Users\matve\AppData\Local\Temp\ccRkZNWM.s 			page 59


 3478 002e 84F83C30 		strb	r3, [r4, #60]
 3479              	.L426:
 3480 0032 70BD     		pop	{r4, r5, r6, pc}
 3481              	.L427:
 3482 0034 0268     		ldr	r2, [r0]
 3483 0036 9368     		ldr	r3, [r2, #8]
 3484 0038 23F47F43 		bic	r3, r3, #65280
 3485 003c 9360     		str	r3, [r2, #8]
 3486              	.L430:
 3487 003e 0C2E     		cmp	r6, #12
 3488 0040 57D8     		bhi	.L442
 3489 0042 DFE806F0 		tbb	[pc, r6]
 3490              	.L433:
 3491 0046 16       		.byte	(.L436-.L433)/2
 3492 0047 56       		.byte	(.L442-.L433)/2
 3493 0048 56       		.byte	(.L442-.L433)/2
 3494 0049 56       		.byte	(.L442-.L433)/2
 3495 004a 26       		.byte	(.L435-.L433)/2
 3496 004b 56       		.byte	(.L442-.L433)/2
 3497 004c 56       		.byte	(.L442-.L433)/2
 3498 004d 56       		.byte	(.L442-.L433)/2
 3499 004e 36       		.byte	(.L434-.L433)/2
 3500 004f 56       		.byte	(.L442-.L433)/2
 3501 0050 56       		.byte	(.L442-.L433)/2
 3502 0051 56       		.byte	(.L442-.L433)/2
 3503 0052 46       		.byte	(.L432-.L433)/2
 3504 0053 00       		.p2align 1
 3505              	.L428:
 3506 0054 C968     		ldr	r1, [r1, #12]
 3507 0056 31B1     		cbz	r1, .L431
 3508 0058 0120     		movs	r0, #1
 3509 005a 84F83D00 		strb	r0, [r4, #61]
 3510 005e 0023     		movs	r3, #0
 3511 0060 84F83C30 		strb	r3, [r4, #60]
 3512 0064 E5E7     		b	.L426
 3513              	.L431:
 3514 0066 2B69     		ldr	r3, [r5, #16]
 3515 0068 AA68     		ldr	r2, [r5, #8]
 3516 006a 0068     		ldr	r0, [r0]
 3517 006c FFF7FEFF 		bl	TIM_ETR_SetConfig
 3518 0070 E5E7     		b	.L430
 3519              	.L436:
 3520 0072 2B68     		ldr	r3, [r5]
 3521 0074 33B1     		cbz	r3, .L437
 3522 0076 2268     		ldr	r2, [r4]
 3523 0078 9369     		ldr	r3, [r2, #24]
 3524 007a 43F08003 		orr	r3, r3, #128
 3525 007e 9361     		str	r3, [r2, #24]
 3526 0080 0020     		movs	r0, #0
 3527 0082 D0E7     		b	.L429
 3528              	.L437:
 3529 0084 2268     		ldr	r2, [r4]
 3530 0086 9369     		ldr	r3, [r2, #24]
 3531 0088 23F08003 		bic	r3, r3, #128
 3532 008c 9361     		str	r3, [r2, #24]
 3533 008e 0020     		movs	r0, #0
 3534 0090 C9E7     		b	.L429
ARM GAS  C:\Users\matve\AppData\Local\Temp\ccRkZNWM.s 			page 60


 3535              	.L435:
 3536 0092 2B68     		ldr	r3, [r5]
 3537 0094 33B1     		cbz	r3, .L438
 3538 0096 2268     		ldr	r2, [r4]
 3539 0098 9369     		ldr	r3, [r2, #24]
 3540 009a 43F40043 		orr	r3, r3, #32768
 3541 009e 9361     		str	r3, [r2, #24]
 3542 00a0 0020     		movs	r0, #0
 3543 00a2 C0E7     		b	.L429
 3544              	.L438:
 3545 00a4 2268     		ldr	r2, [r4]
 3546 00a6 9369     		ldr	r3, [r2, #24]
 3547 00a8 23F40043 		bic	r3, r3, #32768
 3548 00ac 9361     		str	r3, [r2, #24]
 3549 00ae 0020     		movs	r0, #0
 3550 00b0 B9E7     		b	.L429
 3551              	.L434:
 3552 00b2 2B68     		ldr	r3, [r5]
 3553 00b4 33B1     		cbz	r3, .L439
 3554 00b6 2268     		ldr	r2, [r4]
 3555 00b8 D369     		ldr	r3, [r2, #28]
 3556 00ba 43F08003 		orr	r3, r3, #128
 3557 00be D361     		str	r3, [r2, #28]
 3558 00c0 0020     		movs	r0, #0
 3559 00c2 B0E7     		b	.L429
 3560              	.L439:
 3561 00c4 2268     		ldr	r2, [r4]
 3562 00c6 D369     		ldr	r3, [r2, #28]
 3563 00c8 23F08003 		bic	r3, r3, #128
 3564 00cc D361     		str	r3, [r2, #28]
 3565 00ce 0020     		movs	r0, #0
 3566 00d0 A9E7     		b	.L429
 3567              	.L432:
 3568 00d2 2B68     		ldr	r3, [r5]
 3569 00d4 33B1     		cbz	r3, .L440
 3570 00d6 2268     		ldr	r2, [r4]
 3571 00d8 D369     		ldr	r3, [r2, #28]
 3572 00da 43F40043 		orr	r3, r3, #32768
 3573 00de D361     		str	r3, [r2, #28]
 3574 00e0 0020     		movs	r0, #0
 3575 00e2 A0E7     		b	.L429
 3576              	.L440:
 3577 00e4 2268     		ldr	r2, [r4]
 3578 00e6 D369     		ldr	r3, [r2, #28]
 3579 00e8 23F40043 		bic	r3, r3, #32768
 3580 00ec D361     		str	r3, [r2, #28]
 3581 00ee 0020     		movs	r0, #0
 3582 00f0 99E7     		b	.L429
 3583              	.L442:
 3584 00f2 0020     		movs	r0, #0
 3585 00f4 97E7     		b	.L429
 3586              	.L441:
 3587 00f6 0220     		movs	r0, #2
 3588 00f8 7047     		bx	lr
 3590              		.section	.text.HAL_TIM_ConfigClockSource,"ax",%progbits
 3591              		.align	1
 3592              		.global	HAL_TIM_ConfigClockSource
ARM GAS  C:\Users\matve\AppData\Local\Temp\ccRkZNWM.s 			page 61


 3593              		.syntax unified
 3594              		.thumb
 3595              		.thumb_func
 3597              	HAL_TIM_ConfigClockSource:
 3598              		@ args = 0, pretend = 0, frame = 0
 3599              		@ frame_needed = 0, uses_anonymous_args = 0
 3600 0000 90F83C30 		ldrb	r3, [r0, #60]	@ zero_extendqisi2
 3601 0004 012B     		cmp	r3, #1
 3602 0006 78D0     		beq	.L458
 3603 0008 10B5     		push	{r4, lr}
 3604 000a 0446     		mov	r4, r0
 3605 000c 0123     		movs	r3, #1
 3606 000e 80F83C30 		strb	r3, [r0, #60]
 3607 0012 0223     		movs	r3, #2
 3608 0014 80F83D30 		strb	r3, [r0, #61]
 3609 0018 0268     		ldr	r2, [r0]
 3610 001a 9368     		ldr	r3, [r2, #8]
 3611 001c 23F47F43 		bic	r3, r3, #65280
 3612 0020 23F07703 		bic	r3, r3, #119
 3613 0024 9360     		str	r3, [r2, #8]
 3614 0026 0B68     		ldr	r3, [r1]
 3615 0028 602B     		cmp	r3, #96
 3616 002a 4CD0     		beq	.L449
 3617 002c 23D8     		bhi	.L450
 3618 002e 402B     		cmp	r3, #64
 3619 0030 54D0     		beq	.L451
 3620 0032 11D8     		bhi	.L452
 3621 0034 202B     		cmp	r3, #32
 3622 0036 03D0     		beq	.L453
 3623 0038 0AD8     		bhi	.L454
 3624 003a 0BB1     		cbz	r3, .L453
 3625 003c 102B     		cmp	r3, #16
 3626 003e 05D1     		bne	.L465
 3627              	.L453:
 3628 0040 1946     		mov	r1, r3
 3629 0042 2068     		ldr	r0, [r4]
 3630 0044 FFF7FEFF 		bl	TIM_ITRx_SetConfig
 3631 0048 0020     		movs	r0, #0
 3632 004a 28E0     		b	.L455
 3633              	.L465:
 3634 004c 0120     		movs	r0, #1
 3635 004e 26E0     		b	.L455
 3636              	.L454:
 3637 0050 302B     		cmp	r3, #48
 3638 0052 F5D0     		beq	.L453
 3639 0054 0120     		movs	r0, #1
 3640 0056 22E0     		b	.L455
 3641              	.L452:
 3642 0058 502B     		cmp	r3, #80
 3643 005a 0AD1     		bne	.L466
 3644 005c CA68     		ldr	r2, [r1, #12]
 3645 005e 4968     		ldr	r1, [r1, #4]
 3646 0060 0068     		ldr	r0, [r0]
 3647 0062 FFF7FEFF 		bl	TIM_TI1_ConfigInputStage
 3648 0066 5021     		movs	r1, #80
 3649 0068 2068     		ldr	r0, [r4]
 3650 006a FFF7FEFF 		bl	TIM_ITRx_SetConfig
ARM GAS  C:\Users\matve\AppData\Local\Temp\ccRkZNWM.s 			page 62


 3651 006e 0020     		movs	r0, #0
 3652 0070 15E0     		b	.L455
 3653              	.L466:
 3654 0072 0120     		movs	r0, #1
 3655 0074 13E0     		b	.L455
 3656              	.L450:
 3657 0076 B3F5805F 		cmp	r3, #4096
 3658 007a 3AD0     		beq	.L459
 3659 007c B3F5005F 		cmp	r3, #8192
 3660 0080 14D0     		beq	.L457
 3661 0082 702B     		cmp	r3, #112
 3662 0084 37D1     		bne	.L460
 3663 0086 CB68     		ldr	r3, [r1, #12]
 3664 0088 4A68     		ldr	r2, [r1, #4]
 3665 008a 8968     		ldr	r1, [r1, #8]
 3666 008c 0068     		ldr	r0, [r0]
 3667 008e FFF7FEFF 		bl	TIM_ETR_SetConfig
 3668 0092 2268     		ldr	r2, [r4]
 3669 0094 9368     		ldr	r3, [r2, #8]
 3670 0096 43F07703 		orr	r3, r3, #119
 3671 009a 9360     		str	r3, [r2, #8]
 3672 009c 0020     		movs	r0, #0
 3673              	.L455:
 3674 009e 0123     		movs	r3, #1
 3675 00a0 84F83D30 		strb	r3, [r4, #61]
 3676 00a4 0023     		movs	r3, #0
 3677 00a6 84F83C30 		strb	r3, [r4, #60]
 3678 00aa 10BD     		pop	{r4, pc}
 3679              	.L457:
 3680 00ac CB68     		ldr	r3, [r1, #12]
 3681 00ae 4A68     		ldr	r2, [r1, #4]
 3682 00b0 8968     		ldr	r1, [r1, #8]
 3683 00b2 0068     		ldr	r0, [r0]
 3684 00b4 FFF7FEFF 		bl	TIM_ETR_SetConfig
 3685 00b8 2268     		ldr	r2, [r4]
 3686 00ba 9368     		ldr	r3, [r2, #8]
 3687 00bc 43F48043 		orr	r3, r3, #16384
 3688 00c0 9360     		str	r3, [r2, #8]
 3689 00c2 0020     		movs	r0, #0
 3690 00c4 EBE7     		b	.L455
 3691              	.L449:
 3692 00c6 CA68     		ldr	r2, [r1, #12]
 3693 00c8 4968     		ldr	r1, [r1, #4]
 3694 00ca 0068     		ldr	r0, [r0]
 3695 00cc FFF7FEFF 		bl	TIM_TI2_ConfigInputStage
 3696 00d0 6021     		movs	r1, #96
 3697 00d2 2068     		ldr	r0, [r4]
 3698 00d4 FFF7FEFF 		bl	TIM_ITRx_SetConfig
 3699 00d8 0020     		movs	r0, #0
 3700 00da E0E7     		b	.L455
 3701              	.L451:
 3702 00dc CA68     		ldr	r2, [r1, #12]
 3703 00de 4968     		ldr	r1, [r1, #4]
 3704 00e0 0068     		ldr	r0, [r0]
 3705 00e2 FFF7FEFF 		bl	TIM_TI1_ConfigInputStage
 3706 00e6 4021     		movs	r1, #64
 3707 00e8 2068     		ldr	r0, [r4]
ARM GAS  C:\Users\matve\AppData\Local\Temp\ccRkZNWM.s 			page 63


 3708 00ea FFF7FEFF 		bl	TIM_ITRx_SetConfig
 3709 00ee 0020     		movs	r0, #0
 3710 00f0 D5E7     		b	.L455
 3711              	.L459:
 3712 00f2 0020     		movs	r0, #0
 3713 00f4 D3E7     		b	.L455
 3714              	.L460:
 3715 00f6 0120     		movs	r0, #1
 3716 00f8 D1E7     		b	.L455
 3717              	.L458:
 3718 00fa 0220     		movs	r0, #2
 3719 00fc 7047     		bx	lr
 3721              		.section	.text.TIM_SlaveTimer_SetConfig,"ax",%progbits
 3722              		.align	1
 3723              		.syntax unified
 3724              		.thumb
 3725              		.thumb_func
 3727              	TIM_SlaveTimer_SetConfig:
 3728              		@ args = 0, pretend = 0, frame = 0
 3729              		@ frame_needed = 0, uses_anonymous_args = 0
 3730 0000 10B5     		push	{r4, lr}
 3731 0002 0468     		ldr	r4, [r0]
 3732 0004 A268     		ldr	r2, [r4, #8]
 3733 0006 22F07002 		bic	r2, r2, #112
 3734 000a 4B68     		ldr	r3, [r1, #4]
 3735 000c 1343     		orrs	r3, r3, r2
 3736 000e 23F00703 		bic	r3, r3, #7
 3737 0012 0A68     		ldr	r2, [r1]
 3738 0014 1A43     		orrs	r2, r2, r3
 3739 0016 A260     		str	r2, [r4, #8]
 3740 0018 4B68     		ldr	r3, [r1, #4]
 3741 001a 502B     		cmp	r3, #80
 3742 001c 30D0     		beq	.L468
 3743 001e 0BD9     		bls	.L482
 3744 0020 602B     		cmp	r3, #96
 3745 0022 34D0     		beq	.L473
 3746 0024 702B     		cmp	r3, #112
 3747 0026 43D1     		bne	.L479
 3748 0028 0B69     		ldr	r3, [r1, #16]
 3749 002a 8A68     		ldr	r2, [r1, #8]
 3750 002c C968     		ldr	r1, [r1, #12]
 3751 002e 0068     		ldr	r0, [r0]
 3752 0030 FFF7FEFF 		bl	TIM_ETR_SetConfig
 3753 0034 0020     		movs	r0, #0
 3754              	.L471:
 3755 0036 10BD     		pop	{r4, pc}
 3756              	.L482:
 3757 0038 402B     		cmp	r3, #64
 3758 003a 0CD0     		beq	.L470
 3759 003c 2ED8     		bhi	.L474
 3760 003e 202B     		cmp	r3, #32
 3761 0040 2ED0     		beq	.L475
 3762 0042 04D8     		bhi	.L472
 3763 0044 73B3     		cbz	r3, .L476
 3764 0046 102B     		cmp	r3, #16
 3765 0048 2ED1     		bne	.L477
 3766 004a 0020     		movs	r0, #0
ARM GAS  C:\Users\matve\AppData\Local\Temp\ccRkZNWM.s 			page 64


 3767 004c F3E7     		b	.L471
 3768              	.L472:
 3769 004e 302B     		cmp	r3, #48
 3770 0050 2CD1     		bne	.L478
 3771 0052 0020     		movs	r0, #0
 3772 0054 EFE7     		b	.L471
 3773              	.L470:
 3774 0056 0B68     		ldr	r3, [r1]
 3775 0058 052B     		cmp	r3, #5
 3776 005a 2BD0     		beq	.L480
 3777 005c 0368     		ldr	r3, [r0]
 3778 005e 1C6A     		ldr	r4, [r3, #32]
 3779 0060 1A6A     		ldr	r2, [r3, #32]
 3780 0062 22F00102 		bic	r2, r2, #1
 3781 0066 1A62     		str	r2, [r3, #32]
 3782 0068 0268     		ldr	r2, [r0]
 3783 006a 9369     		ldr	r3, [r2, #24]
 3784 006c 23F0F003 		bic	r3, r3, #240
 3785 0070 0969     		ldr	r1, [r1, #16]
 3786 0072 43EA0113 		orr	r3, r3, r1, lsl #4
 3787 0076 9361     		str	r3, [r2, #24]
 3788 0078 0368     		ldr	r3, [r0]
 3789 007a 1C62     		str	r4, [r3, #32]
 3790 007c 0020     		movs	r0, #0
 3791 007e DAE7     		b	.L471
 3792              	.L468:
 3793 0080 0A69     		ldr	r2, [r1, #16]
 3794 0082 8968     		ldr	r1, [r1, #8]
 3795 0084 0068     		ldr	r0, [r0]
 3796 0086 FFF7FEFF 		bl	TIM_TI1_ConfigInputStage
 3797 008a 0020     		movs	r0, #0
 3798 008c D3E7     		b	.L471
 3799              	.L473:
 3800 008e 0A69     		ldr	r2, [r1, #16]
 3801 0090 8968     		ldr	r1, [r1, #8]
 3802 0092 0068     		ldr	r0, [r0]
 3803 0094 FFF7FEFF 		bl	TIM_TI2_ConfigInputStage
 3804 0098 0020     		movs	r0, #0
 3805 009a CCE7     		b	.L471
 3806              	.L474:
 3807 009c 0120     		movs	r0, #1
 3808 009e CAE7     		b	.L471
 3809              	.L475:
 3810 00a0 0020     		movs	r0, #0
 3811 00a2 C8E7     		b	.L471
 3812              	.L476:
 3813 00a4 0020     		movs	r0, #0
 3814 00a6 C6E7     		b	.L471
 3815              	.L477:
 3816 00a8 0120     		movs	r0, #1
 3817 00aa C4E7     		b	.L471
 3818              	.L478:
 3819 00ac 0120     		movs	r0, #1
 3820 00ae C2E7     		b	.L471
 3821              	.L479:
 3822 00b0 0120     		movs	r0, #1
 3823 00b2 C0E7     		b	.L471
ARM GAS  C:\Users\matve\AppData\Local\Temp\ccRkZNWM.s 			page 65


 3824              	.L480:
 3825 00b4 0120     		movs	r0, #1
 3826 00b6 BEE7     		b	.L471
 3828              		.section	.text.HAL_TIM_SlaveConfigSynchro,"ax",%progbits
 3829              		.align	1
 3830              		.global	HAL_TIM_SlaveConfigSynchro
 3831              		.syntax unified
 3832              		.thumb
 3833              		.thumb_func
 3835              	HAL_TIM_SlaveConfigSynchro:
 3836              		@ args = 0, pretend = 0, frame = 0
 3837              		@ frame_needed = 0, uses_anonymous_args = 0
 3838 0000 90F83C30 		ldrb	r3, [r0, #60]	@ zero_extendqisi2
 3839 0004 012B     		cmp	r3, #1
 3840 0006 22D0     		beq	.L486
 3841 0008 10B5     		push	{r4, lr}
 3842 000a 0446     		mov	r4, r0
 3843 000c 0123     		movs	r3, #1
 3844 000e 80F83C30 		strb	r3, [r0, #60]
 3845 0012 0223     		movs	r3, #2
 3846 0014 80F83D30 		strb	r3, [r0, #61]
 3847 0018 FFF7FEFF 		bl	TIM_SlaveTimer_SetConfig
 3848 001c 80B9     		cbnz	r0, .L491
 3849 001e 2268     		ldr	r2, [r4]
 3850 0020 D368     		ldr	r3, [r2, #12]
 3851 0022 23F04003 		bic	r3, r3, #64
 3852 0026 D360     		str	r3, [r2, #12]
 3853 0028 2268     		ldr	r2, [r4]
 3854 002a D368     		ldr	r3, [r2, #12]
 3855 002c 23F48043 		bic	r3, r3, #16384
 3856 0030 D360     		str	r3, [r2, #12]
 3857 0032 0123     		movs	r3, #1
 3858 0034 84F83D30 		strb	r3, [r4, #61]
 3859 0038 0023     		movs	r3, #0
 3860 003a 84F83C30 		strb	r3, [r4, #60]
 3861              	.L484:
 3862 003e 10BD     		pop	{r4, pc}
 3863              	.L491:
 3864 0040 0120     		movs	r0, #1
 3865 0042 84F83D00 		strb	r0, [r4, #61]
 3866 0046 0023     		movs	r3, #0
 3867 0048 84F83C30 		strb	r3, [r4, #60]
 3868 004c F7E7     		b	.L484
 3869              	.L486:
 3870 004e 0220     		movs	r0, #2
 3871 0050 7047     		bx	lr
 3873              		.section	.text.HAL_TIM_SlaveConfigSynchro_IT,"ax",%progbits
 3874              		.align	1
 3875              		.global	HAL_TIM_SlaveConfigSynchro_IT
 3876              		.syntax unified
 3877              		.thumb
 3878              		.thumb_func
 3880              	HAL_TIM_SlaveConfigSynchro_IT:
 3881              		@ args = 0, pretend = 0, frame = 0
 3882              		@ frame_needed = 0, uses_anonymous_args = 0
 3883 0000 90F83C30 		ldrb	r3, [r0, #60]	@ zero_extendqisi2
 3884 0004 012B     		cmp	r3, #1
ARM GAS  C:\Users\matve\AppData\Local\Temp\ccRkZNWM.s 			page 66


 3885 0006 22D0     		beq	.L495
 3886 0008 10B5     		push	{r4, lr}
 3887 000a 0446     		mov	r4, r0
 3888 000c 0123     		movs	r3, #1
 3889 000e 80F83C30 		strb	r3, [r0, #60]
 3890 0012 0223     		movs	r3, #2
 3891 0014 80F83D30 		strb	r3, [r0, #61]
 3892 0018 FFF7FEFF 		bl	TIM_SlaveTimer_SetConfig
 3893 001c 80B9     		cbnz	r0, .L500
 3894 001e 2268     		ldr	r2, [r4]
 3895 0020 D368     		ldr	r3, [r2, #12]
 3896 0022 43F04003 		orr	r3, r3, #64
 3897 0026 D360     		str	r3, [r2, #12]
 3898 0028 2268     		ldr	r2, [r4]
 3899 002a D368     		ldr	r3, [r2, #12]
 3900 002c 23F48043 		bic	r3, r3, #16384
 3901 0030 D360     		str	r3, [r2, #12]
 3902 0032 0123     		movs	r3, #1
 3903 0034 84F83D30 		strb	r3, [r4, #61]
 3904 0038 0023     		movs	r3, #0
 3905 003a 84F83C30 		strb	r3, [r4, #60]
 3906              	.L493:
 3907 003e 10BD     		pop	{r4, pc}
 3908              	.L500:
 3909 0040 0120     		movs	r0, #1
 3910 0042 84F83D00 		strb	r0, [r4, #61]
 3911 0046 0023     		movs	r3, #0
 3912 0048 84F83C30 		strb	r3, [r4, #60]
 3913 004c F7E7     		b	.L493
 3914              	.L495:
 3915 004e 0220     		movs	r0, #2
 3916 0050 7047     		bx	lr
 3918              		.section	.text.TIM_CCxChannelCmd,"ax",%progbits
 3919              		.align	1
 3920              		.global	TIM_CCxChannelCmd
 3921              		.syntax unified
 3922              		.thumb
 3923              		.thumb_func
 3925              	TIM_CCxChannelCmd:
 3926              		@ args = 0, pretend = 0, frame = 0
 3927              		@ frame_needed = 0, uses_anonymous_args = 0
 3928              		@ link register save eliminated.
 3929 0000 01F01F01 		and	r1, r1, #31
 3930 0004 4FF0010C 		mov	ip, #1
 3931 0008 0CFA01FC 		lsl	ip, ip, r1
 3932 000c 036A     		ldr	r3, [r0, #32]
 3933 000e 23EA0C03 		bic	r3, r3, ip
 3934 0012 0362     		str	r3, [r0, #32]
 3935 0014 036A     		ldr	r3, [r0, #32]
 3936 0016 8A40     		lsls	r2, r2, r1
 3937 0018 1343     		orrs	r3, r3, r2
 3938 001a 0362     		str	r3, [r0, #32]
 3939 001c 7047     		bx	lr
 3941              		.section	.text.HAL_TIM_OC_Start,"ax",%progbits
 3942              		.align	1
 3943              		.global	HAL_TIM_OC_Start
 3944              		.syntax unified
ARM GAS  C:\Users\matve\AppData\Local\Temp\ccRkZNWM.s 			page 67


 3945              		.thumb
 3946              		.thumb_func
 3948              	HAL_TIM_OC_Start:
 3949              		@ args = 0, pretend = 0, frame = 0
 3950              		@ frame_needed = 0, uses_anonymous_args = 0
 3951 0000 10B5     		push	{r4, lr}
 3952 0002 0446     		mov	r4, r0
 3953 0004 0846     		mov	r0, r1
 3954 0006 51BB     		cbnz	r1, .L503
 3955 0008 94F83E30 		ldrb	r3, [r4, #62]	@ zero_extendqisi2
 3956 000c DBB2     		uxtb	r3, r3
 3957 000e 013B     		subs	r3, r3, #1
 3958 0010 18BF     		it	ne
 3959 0012 0123     		movne	r3, #1
 3960              	.L504:
 3961 0014 002B     		cmp	r3, #0
 3962 0016 5BD1     		bne	.L515
 3963 0018 0028     		cmp	r0, #0
 3964 001a 39D1     		bne	.L508
 3965 001c 0223     		movs	r3, #2
 3966 001e 84F83E30 		strb	r3, [r4, #62]
 3967              	.L509:
 3968 0022 0122     		movs	r2, #1
 3969 0024 0146     		mov	r1, r0
 3970 0026 2068     		ldr	r0, [r4]
 3971 0028 FFF7FEFF 		bl	TIM_CCxChannelCmd
 3972 002c 2368     		ldr	r3, [r4]
 3973 002e 2A4A     		ldr	r2, .L523
 3974 0030 9342     		cmp	r3, r2
 3975 0032 3DD0     		beq	.L518
 3976              	.L512:
 3977 0034 2368     		ldr	r3, [r4]
 3978 0036 284A     		ldr	r2, .L523
 3979 0038 9342     		cmp	r3, r2
 3980 003a 3ED0     		beq	.L513
 3981 003c B3F1804F 		cmp	r3, #1073741824
 3982 0040 3BD0     		beq	.L513
 3983 0042 A2F59432 		sub	r2, r2, #75776
 3984 0046 9342     		cmp	r3, r2
 3985 0048 37D0     		beq	.L513
 3986 004a 02F58062 		add	r2, r2, #1024
 3987 004e 9342     		cmp	r3, r2
 3988 0050 33D0     		beq	.L513
 3989 0052 1A68     		ldr	r2, [r3]
 3990 0054 42F00102 		orr	r2, r2, #1
 3991 0058 1A60     		str	r2, [r3]
 3992 005a 0020     		movs	r0, #0
 3993 005c 39E0     		b	.L507
 3994              	.L503:
 3995 005e 0429     		cmp	r1, #4
 3996 0060 08D0     		beq	.L519
 3997 0062 0829     		cmp	r1, #8
 3998 0064 0DD0     		beq	.L520
 3999 0066 94F84130 		ldrb	r3, [r4, #65]	@ zero_extendqisi2
 4000 006a DBB2     		uxtb	r3, r3
 4001 006c 013B     		subs	r3, r3, #1
 4002 006e 18BF     		it	ne
ARM GAS  C:\Users\matve\AppData\Local\Temp\ccRkZNWM.s 			page 68


 4003 0070 0123     		movne	r3, #1
 4004 0072 CFE7     		b	.L504
 4005              	.L519:
 4006 0074 94F83F30 		ldrb	r3, [r4, #63]	@ zero_extendqisi2
 4007 0078 DBB2     		uxtb	r3, r3
 4008 007a 013B     		subs	r3, r3, #1
 4009 007c 18BF     		it	ne
 4010 007e 0123     		movne	r3, #1
 4011 0080 C8E7     		b	.L504
 4012              	.L520:
 4013 0082 94F84030 		ldrb	r3, [r4, #64]	@ zero_extendqisi2
 4014 0086 DBB2     		uxtb	r3, r3
 4015 0088 013B     		subs	r3, r3, #1
 4016 008a 18BF     		it	ne
 4017 008c 0123     		movne	r3, #1
 4018 008e C1E7     		b	.L504
 4019              	.L508:
 4020 0090 0428     		cmp	r0, #4
 4021 0092 05D0     		beq	.L521
 4022 0094 0828     		cmp	r0, #8
 4023 0096 07D0     		beq	.L522
 4024 0098 0223     		movs	r3, #2
 4025 009a 84F84130 		strb	r3, [r4, #65]
 4026 009e C0E7     		b	.L509
 4027              	.L521:
 4028 00a0 0223     		movs	r3, #2
 4029 00a2 84F83F30 		strb	r3, [r4, #63]
 4030 00a6 BCE7     		b	.L509
 4031              	.L522:
 4032 00a8 0223     		movs	r3, #2
 4033 00aa 84F84030 		strb	r3, [r4, #64]
 4034 00ae B8E7     		b	.L509
 4035              	.L518:
 4036 00b0 5A6C     		ldr	r2, [r3, #68]
 4037 00b2 42F40042 		orr	r2, r2, #32768
 4038 00b6 5A64     		str	r2, [r3, #68]
 4039 00b8 BCE7     		b	.L512
 4040              	.L513:
 4041 00ba 9A68     		ldr	r2, [r3, #8]
 4042 00bc 02F00702 		and	r2, r2, #7
 4043 00c0 062A     		cmp	r2, #6
 4044 00c2 07D0     		beq	.L516
 4045 00c4 1A68     		ldr	r2, [r3]
 4046 00c6 42F00102 		orr	r2, r2, #1
 4047 00ca 1A60     		str	r2, [r3]
 4048 00cc 0020     		movs	r0, #0
 4049 00ce 00E0     		b	.L507
 4050              	.L515:
 4051 00d0 0120     		movs	r0, #1
 4052              	.L507:
 4053 00d2 10BD     		pop	{r4, pc}
 4054              	.L516:
 4055 00d4 0020     		movs	r0, #0
 4056 00d6 FCE7     		b	.L507
 4057              	.L524:
 4058              		.align	2
 4059              	.L523:
ARM GAS  C:\Users\matve\AppData\Local\Temp\ccRkZNWM.s 			page 69


 4060 00d8 002C0140 		.word	1073818624
 4062              		.section	.text.HAL_TIM_OC_Stop,"ax",%progbits
 4063              		.align	1
 4064              		.global	HAL_TIM_OC_Stop
 4065              		.syntax unified
 4066              		.thumb
 4067              		.thumb_func
 4069              	HAL_TIM_OC_Stop:
 4070              		@ args = 0, pretend = 0, frame = 0
 4071              		@ frame_needed = 0, uses_anonymous_args = 0
 4072 0000 38B5     		push	{r3, r4, r5, lr}
 4073 0002 0446     		mov	r4, r0
 4074 0004 0D46     		mov	r5, r1
 4075 0006 0022     		movs	r2, #0
 4076 0008 0068     		ldr	r0, [r0]
 4077 000a FFF7FEFF 		bl	TIM_CCxChannelCmd
 4078 000e 2368     		ldr	r3, [r4]
 4079 0010 1B4A     		ldr	r2, .L536
 4080 0012 9342     		cmp	r3, r2
 4081 0014 14D0     		beq	.L533
 4082              	.L526:
 4083 0016 2368     		ldr	r3, [r4]
 4084 0018 196A     		ldr	r1, [r3, #32]
 4085 001a 41F21112 		movw	r2, #4369
 4086 001e 1142     		tst	r1, r2
 4087 0020 08D1     		bne	.L527
 4088 0022 196A     		ldr	r1, [r3, #32]
 4089 0024 40F24442 		movw	r2, #1092
 4090 0028 1142     		tst	r1, r2
 4091 002a 03D1     		bne	.L527
 4092 002c 1A68     		ldr	r2, [r3]
 4093 002e 22F00102 		bic	r2, r2, #1
 4094 0032 1A60     		str	r2, [r3]
 4095              	.L527:
 4096 0034 9DB9     		cbnz	r5, .L528
 4097 0036 0123     		movs	r3, #1
 4098 0038 84F83E30 		strb	r3, [r4, #62]
 4099              	.L529:
 4100 003c 0020     		movs	r0, #0
 4101 003e 38BD     		pop	{r3, r4, r5, pc}
 4102              	.L533:
 4103 0040 196A     		ldr	r1, [r3, #32]
 4104 0042 41F21112 		movw	r2, #4369
 4105 0046 1142     		tst	r1, r2
 4106 0048 E5D1     		bne	.L526
 4107 004a 196A     		ldr	r1, [r3, #32]
 4108 004c 40F24442 		movw	r2, #1092
 4109 0050 1142     		tst	r1, r2
 4110 0052 E0D1     		bne	.L526
 4111 0054 5A6C     		ldr	r2, [r3, #68]
 4112 0056 22F40042 		bic	r2, r2, #32768
 4113 005a 5A64     		str	r2, [r3, #68]
 4114 005c DBE7     		b	.L526
 4115              	.L528:
 4116 005e 042D     		cmp	r5, #4
 4117 0060 05D0     		beq	.L534
 4118 0062 082D     		cmp	r5, #8
ARM GAS  C:\Users\matve\AppData\Local\Temp\ccRkZNWM.s 			page 70


 4119 0064 07D0     		beq	.L535
 4120 0066 0123     		movs	r3, #1
 4121 0068 84F84130 		strb	r3, [r4, #65]
 4122 006c E6E7     		b	.L529
 4123              	.L534:
 4124 006e 0123     		movs	r3, #1
 4125 0070 84F83F30 		strb	r3, [r4, #63]
 4126 0074 E2E7     		b	.L529
 4127              	.L535:
 4128 0076 0123     		movs	r3, #1
 4129 0078 84F84030 		strb	r3, [r4, #64]
 4130 007c DEE7     		b	.L529
 4131              	.L537:
 4132 007e 00BF     		.align	2
 4133              	.L536:
 4134 0080 002C0140 		.word	1073818624
 4136              		.section	.text.HAL_TIM_OC_Start_IT,"ax",%progbits
 4137              		.align	1
 4138              		.global	HAL_TIM_OC_Start_IT
 4139              		.syntax unified
 4140              		.thumb
 4141              		.thumb_func
 4143              	HAL_TIM_OC_Start_IT:
 4144              		@ args = 0, pretend = 0, frame = 0
 4145              		@ frame_needed = 0, uses_anonymous_args = 0
 4146 0000 10B5     		push	{r4, lr}
 4147 0002 0446     		mov	r4, r0
 4148 0004 0846     		mov	r0, r1
 4149 0006 0029     		cmp	r1, #0
 4150 0008 30D1     		bne	.L539
 4151 000a 94F83E30 		ldrb	r3, [r4, #62]	@ zero_extendqisi2
 4152 000e DBB2     		uxtb	r3, r3
 4153 0010 013B     		subs	r3, r3, #1
 4154 0012 18BF     		it	ne
 4155 0014 0123     		movne	r3, #1
 4156              	.L540:
 4157 0016 002B     		cmp	r3, #0
 4158 0018 40F09080 		bne	.L556
 4159 001c 0028     		cmp	r0, #0
 4160 001e 3ED1     		bne	.L544
 4161 0020 0223     		movs	r3, #2
 4162 0022 84F83E30 		strb	r3, [r4, #62]
 4163              	.L545:
 4164 0026 2268     		ldr	r2, [r4]
 4165 0028 D368     		ldr	r3, [r2, #12]
 4166 002a 43F00203 		orr	r3, r3, #2
 4167 002e D360     		str	r3, [r2, #12]
 4168              	.L552:
 4169 0030 0122     		movs	r2, #1
 4170 0032 0146     		mov	r1, r0
 4171 0034 2068     		ldr	r0, [r4]
 4172 0036 FFF7FEFF 		bl	TIM_CCxChannelCmd
 4173 003a 2368     		ldr	r3, [r4]
 4174 003c 424A     		ldr	r2, .L568
 4175 003e 9342     		cmp	r3, r2
 4176 0040 6CD0     		beq	.L563
 4177              	.L553:
ARM GAS  C:\Users\matve\AppData\Local\Temp\ccRkZNWM.s 			page 71


 4178 0042 2368     		ldr	r3, [r4]
 4179 0044 404A     		ldr	r2, .L568
 4180 0046 9342     		cmp	r3, r2
 4181 0048 6DD0     		beq	.L554
 4182 004a B3F1804F 		cmp	r3, #1073741824
 4183 004e 6AD0     		beq	.L554
 4184 0050 A2F59432 		sub	r2, r2, #75776
 4185 0054 9342     		cmp	r3, r2
 4186 0056 66D0     		beq	.L554
 4187 0058 02F58062 		add	r2, r2, #1024
 4188 005c 9342     		cmp	r3, r2
 4189 005e 62D0     		beq	.L554
 4190 0060 1A68     		ldr	r2, [r3]
 4191 0062 42F00102 		orr	r2, r2, #1
 4192 0066 1A60     		str	r2, [r3]
 4193 0068 0020     		movs	r0, #0
 4194 006a 68E0     		b	.L543
 4195              	.L539:
 4196 006c 0429     		cmp	r1, #4
 4197 006e 08D0     		beq	.L564
 4198 0070 0829     		cmp	r1, #8
 4199 0072 0DD0     		beq	.L565
 4200 0074 94F84130 		ldrb	r3, [r4, #65]	@ zero_extendqisi2
 4201 0078 DBB2     		uxtb	r3, r3
 4202 007a 013B     		subs	r3, r3, #1
 4203 007c 18BF     		it	ne
 4204 007e 0123     		movne	r3, #1
 4205 0080 C9E7     		b	.L540
 4206              	.L564:
 4207 0082 94F83F30 		ldrb	r3, [r4, #63]	@ zero_extendqisi2
 4208 0086 DBB2     		uxtb	r3, r3
 4209 0088 013B     		subs	r3, r3, #1
 4210 008a 18BF     		it	ne
 4211 008c 0123     		movne	r3, #1
 4212 008e C2E7     		b	.L540
 4213              	.L565:
 4214 0090 94F84030 		ldrb	r3, [r4, #64]	@ zero_extendqisi2
 4215 0094 DBB2     		uxtb	r3, r3
 4216 0096 013B     		subs	r3, r3, #1
 4217 0098 18BF     		it	ne
 4218 009a 0123     		movne	r3, #1
 4219 009c BBE7     		b	.L540
 4220              	.L544:
 4221 009e 0428     		cmp	r0, #4
 4222 00a0 24D0     		beq	.L566
 4223 00a2 0828     		cmp	r0, #8
 4224 00a4 2BD0     		beq	.L567
 4225 00a6 0223     		movs	r3, #2
 4226 00a8 84F84130 		strb	r3, [r4, #65]
 4227 00ac 0C28     		cmp	r0, #12
 4228 00ae 47D8     		bhi	.L557
 4229 00b0 01A3     		adr	r3, .L551
 4230 00b2 53F820F0 		ldr	pc, [r3, r0, lsl #2]
 4231 00b6 00BF     		.p2align 2
 4232              	.L551:
 4233 00b8 27000000 		.word	.L545+1
 4234 00bc 41010000 		.word	.L557+1
ARM GAS  C:\Users\matve\AppData\Local\Temp\ccRkZNWM.s 			page 72


 4235 00c0 41010000 		.word	.L557+1
 4236 00c4 41010000 		.word	.L557+1
 4237 00c8 F3000000 		.word	.L547+1
 4238 00cc 41010000 		.word	.L557+1
 4239 00d0 41010000 		.word	.L557+1
 4240 00d4 41010000 		.word	.L557+1
 4241 00d8 05010000 		.word	.L549+1
 4242 00dc 41010000 		.word	.L557+1
 4243 00e0 41010000 		.word	.L557+1
 4244 00e4 41010000 		.word	.L557+1
 4245 00e8 11010000 		.word	.L550+1
 4246              		.p2align 1
 4247              	.L566:
 4248 00ec 0223     		movs	r3, #2
 4249 00ee 84F83F30 		strb	r3, [r4, #63]
 4250              	.L547:
 4251 00f2 2268     		ldr	r2, [r4]
 4252 00f4 D368     		ldr	r3, [r2, #12]
 4253 00f6 43F00403 		orr	r3, r3, #4
 4254 00fa D360     		str	r3, [r2, #12]
 4255 00fc 98E7     		b	.L552
 4256              	.L567:
 4257 00fe 0223     		movs	r3, #2
 4258 0100 84F84030 		strb	r3, [r4, #64]
 4259              	.L549:
 4260 0104 2268     		ldr	r2, [r4]
 4261 0106 D368     		ldr	r3, [r2, #12]
 4262 0108 43F00803 		orr	r3, r3, #8
 4263 010c D360     		str	r3, [r2, #12]
 4264 010e 8FE7     		b	.L552
 4265              	.L550:
 4266 0110 2268     		ldr	r2, [r4]
 4267 0112 D368     		ldr	r3, [r2, #12]
 4268 0114 43F01003 		orr	r3, r3, #16
 4269 0118 D360     		str	r3, [r2, #12]
 4270 011a 89E7     		b	.L552
 4271              	.L563:
 4272 011c 5A6C     		ldr	r2, [r3, #68]
 4273 011e 42F40042 		orr	r2, r2, #32768
 4274 0122 5A64     		str	r2, [r3, #68]
 4275 0124 8DE7     		b	.L553
 4276              	.L554:
 4277 0126 9A68     		ldr	r2, [r3, #8]
 4278 0128 02F00702 		and	r2, r2, #7
 4279 012c 062A     		cmp	r2, #6
 4280 012e 09D0     		beq	.L558
 4281 0130 1A68     		ldr	r2, [r3]
 4282 0132 42F00102 		orr	r2, r2, #1
 4283 0136 1A60     		str	r2, [r3]
 4284 0138 0020     		movs	r0, #0
 4285 013a 00E0     		b	.L543
 4286              	.L556:
 4287 013c 0120     		movs	r0, #1
 4288              	.L543:
 4289 013e 10BD     		pop	{r4, pc}
 4290              	.L557:
 4291 0140 0120     		movs	r0, #1
ARM GAS  C:\Users\matve\AppData\Local\Temp\ccRkZNWM.s 			page 73


 4292 0142 FCE7     		b	.L543
 4293              	.L558:
 4294 0144 0020     		movs	r0, #0
 4295 0146 FAE7     		b	.L543
 4296              	.L569:
 4297              		.align	2
 4298              	.L568:
 4299 0148 002C0140 		.word	1073818624
 4301              		.section	.text.HAL_TIM_OC_Stop_IT,"ax",%progbits
 4302              		.align	1
 4303              		.global	HAL_TIM_OC_Stop_IT
 4304              		.syntax unified
 4305              		.thumb
 4306              		.thumb_func
 4308              	HAL_TIM_OC_Stop_IT:
 4309              		@ args = 0, pretend = 0, frame = 0
 4310              		@ frame_needed = 0, uses_anonymous_args = 0
 4311 0000 38B5     		push	{r3, r4, r5, lr}
 4312 0002 0546     		mov	r5, r0
 4313 0004 0C46     		mov	r4, r1
 4314 0006 0C29     		cmp	r1, #12
 4315 0008 5FD8     		bhi	.L583
 4316 000a DFE801F0 		tbb	[pc, r1]
 4317              	.L573:
 4318 000e 07       		.byte	(.L576-.L573)/2
 4319 000f 5E       		.byte	(.L583-.L573)/2
 4320 0010 5E       		.byte	(.L583-.L573)/2
 4321 0011 5E       		.byte	(.L583-.L573)/2
 4322 0012 2A       		.byte	(.L575-.L573)/2
 4323 0013 5E       		.byte	(.L583-.L573)/2
 4324 0014 5E       		.byte	(.L583-.L573)/2
 4325 0015 5E       		.byte	(.L583-.L573)/2
 4326 0016 30       		.byte	(.L574-.L573)/2
 4327 0017 5E       		.byte	(.L583-.L573)/2
 4328 0018 5E       		.byte	(.L583-.L573)/2
 4329 0019 5E       		.byte	(.L583-.L573)/2
 4330 001a 36       		.byte	(.L572-.L573)/2
 4331 001b 00       		.p2align 1
 4332              	.L576:
 4333 001c 0268     		ldr	r2, [r0]
 4334 001e D368     		ldr	r3, [r2, #12]
 4335 0020 23F00203 		bic	r3, r3, #2
 4336 0024 D360     		str	r3, [r2, #12]
 4337              	.L577:
 4338 0026 0022     		movs	r2, #0
 4339 0028 2146     		mov	r1, r4
 4340 002a 2868     		ldr	r0, [r5]
 4341 002c FFF7FEFF 		bl	TIM_CCxChannelCmd
 4342 0030 2B68     		ldr	r3, [r5]
 4343 0032 274A     		ldr	r2, .L588
 4344 0034 9342     		cmp	r3, r2
 4345 0036 26D0     		beq	.L585
 4346              	.L578:
 4347 0038 2B68     		ldr	r3, [r5]
 4348 003a 196A     		ldr	r1, [r3, #32]
 4349 003c 41F21112 		movw	r2, #4369
 4350 0040 1142     		tst	r1, r2
ARM GAS  C:\Users\matve\AppData\Local\Temp\ccRkZNWM.s 			page 74


 4351 0042 08D1     		bne	.L579
 4352 0044 196A     		ldr	r1, [r3, #32]
 4353 0046 40F24442 		movw	r2, #1092
 4354 004a 1142     		tst	r1, r2
 4355 004c 03D1     		bne	.L579
 4356 004e 1A68     		ldr	r2, [r3]
 4357 0050 22F00102 		bic	r2, r2, #1
 4358 0054 1A60     		str	r2, [r3]
 4359              	.L579:
 4360 0056 2CBB     		cbnz	r4, .L580
 4361 0058 0123     		movs	r3, #1
 4362 005a 85F83E30 		strb	r3, [r5, #62]
 4363 005e 0020     		movs	r0, #0
 4364 0060 34E0     		b	.L571
 4365              	.L575:
 4366 0062 0268     		ldr	r2, [r0]
 4367 0064 D368     		ldr	r3, [r2, #12]
 4368 0066 23F00403 		bic	r3, r3, #4
 4369 006a D360     		str	r3, [r2, #12]
 4370 006c DBE7     		b	.L577
 4371              	.L574:
 4372 006e 0268     		ldr	r2, [r0]
 4373 0070 D368     		ldr	r3, [r2, #12]
 4374 0072 23F00803 		bic	r3, r3, #8
 4375 0076 D360     		str	r3, [r2, #12]
 4376 0078 D5E7     		b	.L577
 4377              	.L572:
 4378 007a 0268     		ldr	r2, [r0]
 4379 007c D368     		ldr	r3, [r2, #12]
 4380 007e 23F01003 		bic	r3, r3, #16
 4381 0082 D360     		str	r3, [r2, #12]
 4382 0084 CFE7     		b	.L577
 4383              	.L585:
 4384 0086 196A     		ldr	r1, [r3, #32]
 4385 0088 41F21112 		movw	r2, #4369
 4386 008c 1142     		tst	r1, r2
 4387 008e D3D1     		bne	.L578
 4388 0090 196A     		ldr	r1, [r3, #32]
 4389 0092 40F24442 		movw	r2, #1092
 4390 0096 1142     		tst	r1, r2
 4391 0098 CED1     		bne	.L578
 4392 009a 5A6C     		ldr	r2, [r3, #68]
 4393 009c 22F40042 		bic	r2, r2, #32768
 4394 00a0 5A64     		str	r2, [r3, #68]
 4395 00a2 C9E7     		b	.L578
 4396              	.L580:
 4397 00a4 042C     		cmp	r4, #4
 4398 00a6 06D0     		beq	.L586
 4399 00a8 082C     		cmp	r4, #8
 4400 00aa 09D0     		beq	.L587
 4401 00ac 0123     		movs	r3, #1
 4402 00ae 85F84130 		strb	r3, [r5, #65]
 4403 00b2 0020     		movs	r0, #0
 4404 00b4 0AE0     		b	.L571
 4405              	.L586:
 4406 00b6 0123     		movs	r3, #1
 4407 00b8 85F83F30 		strb	r3, [r5, #63]
ARM GAS  C:\Users\matve\AppData\Local\Temp\ccRkZNWM.s 			page 75


 4408 00bc 0020     		movs	r0, #0
 4409 00be 05E0     		b	.L571
 4410              	.L587:
 4411 00c0 0123     		movs	r3, #1
 4412 00c2 85F84030 		strb	r3, [r5, #64]
 4413 00c6 0020     		movs	r0, #0
 4414 00c8 00E0     		b	.L571
 4415              	.L583:
 4416 00ca 0120     		movs	r0, #1
 4417              	.L571:
 4418 00cc 38BD     		pop	{r3, r4, r5, pc}
 4419              	.L589:
 4420 00ce 00BF     		.align	2
 4421              	.L588:
 4422 00d0 002C0140 		.word	1073818624
 4424              		.section	.text.HAL_TIM_OC_Start_DMA,"ax",%progbits
 4425              		.align	1
 4426              		.global	HAL_TIM_OC_Start_DMA
 4427              		.syntax unified
 4428              		.thumb
 4429              		.thumb_func
 4431              	HAL_TIM_OC_Start_DMA:
 4432              		@ args = 0, pretend = 0, frame = 0
 4433              		@ frame_needed = 0, uses_anonymous_args = 0
 4434 0000 70B5     		push	{r4, r5, r6, lr}
 4435 0002 0446     		mov	r4, r0
 4436 0004 1646     		mov	r6, r2
 4437 0006 0D46     		mov	r5, r1
 4438 0008 0029     		cmp	r1, #0
 4439 000a 5AD1     		bne	.L591
 4440 000c 90F83E00 		ldrb	r0, [r0, #62]	@ zero_extendqisi2
 4441 0010 C0B2     		uxtb	r0, r0
 4442 0012 0228     		cmp	r0, #2
 4443 0014 14BF     		ite	ne
 4444 0016 0020     		movne	r0, #0
 4445 0018 0120     		moveq	r0, #1
 4446              	.L592:
 4447 001a 0028     		cmp	r0, #0
 4448 001c 40F00A81 		bne	.L612
 4449 0020 002D     		cmp	r5, #0
 4450 0022 6AD1     		bne	.L596
 4451 0024 94F83E20 		ldrb	r2, [r4, #62]	@ zero_extendqisi2
 4452 0028 D2B2     		uxtb	r2, r2
 4453 002a 012A     		cmp	r2, #1
 4454 002c 14BF     		ite	ne
 4455 002e 0022     		movne	r2, #0
 4456 0030 0122     		moveq	r2, #1
 4457              	.L597:
 4458 0032 002A     		cmp	r2, #0
 4459 0034 00F00081 		beq	.L613
 4460 0038 002E     		cmp	r6, #0
 4461 003a 00F0FF80 		beq	.L614
 4462 003e 002B     		cmp	r3, #0
 4463 0040 00F0FE80 		beq	.L615
 4464 0044 002D     		cmp	r5, #0
 4465 0046 74D1     		bne	.L600
 4466 0048 0222     		movs	r2, #2
ARM GAS  C:\Users\matve\AppData\Local\Temp\ccRkZNWM.s 			page 76


 4467 004a 84F83E20 		strb	r2, [r4, #62]
 4468              	.L601:
 4469 004e 626A     		ldr	r2, [r4, #36]
 4470 0050 8249     		ldr	r1, .L633
 4471 0052 9162     		str	r1, [r2, #40]
 4472 0054 626A     		ldr	r2, [r4, #36]
 4473 0056 8249     		ldr	r1, .L633+4
 4474 0058 D162     		str	r1, [r2, #44]
 4475 005a 626A     		ldr	r2, [r4, #36]
 4476 005c 8149     		ldr	r1, .L633+8
 4477 005e 1163     		str	r1, [r2, #48]
 4478 0060 2268     		ldr	r2, [r4]
 4479 0062 3432     		adds	r2, r2, #52
 4480 0064 3146     		mov	r1, r6
 4481 0066 606A     		ldr	r0, [r4, #36]
 4482 0068 FFF7FEFF 		bl	HAL_DMA_Start_IT
 4483 006c 0028     		cmp	r0, #0
 4484 006e 40F0EB80 		bne	.L617
 4485 0072 2268     		ldr	r2, [r4]
 4486 0074 D368     		ldr	r3, [r2, #12]
 4487 0076 43F40073 		orr	r3, r3, #512
 4488 007a D360     		str	r3, [r2, #12]
 4489              	.L608:
 4490 007c 0122     		movs	r2, #1
 4491 007e 2946     		mov	r1, r5
 4492 0080 2068     		ldr	r0, [r4]
 4493 0082 FFF7FEFF 		bl	TIM_CCxChannelCmd
 4494 0086 2368     		ldr	r3, [r4]
 4495 0088 774A     		ldr	r2, .L633+12
 4496 008a 9342     		cmp	r3, r2
 4497 008c 00F0C280 		beq	.L626
 4498              	.L609:
 4499 0090 2368     		ldr	r3, [r4]
 4500 0092 754A     		ldr	r2, .L633+12
 4501 0094 9342     		cmp	r3, r2
 4502 0096 00F0C280 		beq	.L610
 4503 009a B3F1804F 		cmp	r3, #1073741824
 4504 009e 00F0BE80 		beq	.L610
 4505 00a2 A2F59432 		sub	r2, r2, #75776
 4506 00a6 9342     		cmp	r3, r2
 4507 00a8 00F0B980 		beq	.L610
 4508 00ac 02F58062 		add	r2, r2, #1024
 4509 00b0 9342     		cmp	r3, r2
 4510 00b2 00F0B480 		beq	.L610
 4511 00b6 1A68     		ldr	r2, [r3]
 4512 00b8 42F00102 		orr	r2, r2, #1
 4513 00bc 1A60     		str	r2, [r3]
 4514 00be 0020     		movs	r0, #0
 4515 00c0 BBE0     		b	.L595
 4516              	.L591:
 4517 00c2 0429     		cmp	r1, #4
 4518 00c4 09D0     		beq	.L627
 4519 00c6 0829     		cmp	r1, #8
 4520 00c8 0FD0     		beq	.L628
 4521 00ca 90F84100 		ldrb	r0, [r0, #65]	@ zero_extendqisi2
 4522 00ce C0B2     		uxtb	r0, r0
 4523 00d0 0228     		cmp	r0, #2
ARM GAS  C:\Users\matve\AppData\Local\Temp\ccRkZNWM.s 			page 77


 4524 00d2 14BF     		ite	ne
 4525 00d4 0020     		movne	r0, #0
 4526 00d6 0120     		moveq	r0, #1
 4527 00d8 9FE7     		b	.L592
 4528              	.L627:
 4529 00da 90F83F00 		ldrb	r0, [r0, #63]	@ zero_extendqisi2
 4530 00de C0B2     		uxtb	r0, r0
 4531 00e0 0228     		cmp	r0, #2
 4532 00e2 14BF     		ite	ne
 4533 00e4 0020     		movne	r0, #0
 4534 00e6 0120     		moveq	r0, #1
 4535 00e8 97E7     		b	.L592
 4536              	.L628:
 4537 00ea 90F84000 		ldrb	r0, [r0, #64]	@ zero_extendqisi2
 4538 00ee C0B2     		uxtb	r0, r0
 4539 00f0 0228     		cmp	r0, #2
 4540 00f2 14BF     		ite	ne
 4541 00f4 0020     		movne	r0, #0
 4542 00f6 0120     		moveq	r0, #1
 4543 00f8 8FE7     		b	.L592
 4544              	.L596:
 4545 00fa 042D     		cmp	r5, #4
 4546 00fc 09D0     		beq	.L629
 4547 00fe 082D     		cmp	r5, #8
 4548 0100 0FD0     		beq	.L630
 4549 0102 94F84120 		ldrb	r2, [r4, #65]	@ zero_extendqisi2
 4550 0106 D2B2     		uxtb	r2, r2
 4551 0108 012A     		cmp	r2, #1
 4552 010a 14BF     		ite	ne
 4553 010c 0022     		movne	r2, #0
 4554 010e 0122     		moveq	r2, #1
 4555 0110 8FE7     		b	.L597
 4556              	.L629:
 4557 0112 94F83F20 		ldrb	r2, [r4, #63]	@ zero_extendqisi2
 4558 0116 D2B2     		uxtb	r2, r2
 4559 0118 012A     		cmp	r2, #1
 4560 011a 14BF     		ite	ne
 4561 011c 0022     		movne	r2, #0
 4562 011e 0122     		moveq	r2, #1
 4563 0120 87E7     		b	.L597
 4564              	.L630:
 4565 0122 94F84020 		ldrb	r2, [r4, #64]	@ zero_extendqisi2
 4566 0126 D2B2     		uxtb	r2, r2
 4567 0128 012A     		cmp	r2, #1
 4568 012a 14BF     		ite	ne
 4569 012c 0022     		movne	r2, #0
 4570 012e 0122     		moveq	r2, #1
 4571 0130 7FE7     		b	.L597
 4572              	.L600:
 4573 0132 042D     		cmp	r5, #4
 4574 0134 24D0     		beq	.L631
 4575 0136 082D     		cmp	r5, #8
 4576 0138 3CD0     		beq	.L632
 4577 013a 0222     		movs	r2, #2
 4578 013c 84F84120 		strb	r2, [r4, #65]
 4579 0140 0C2D     		cmp	r5, #12
 4580 0142 7FD8     		bhi	.L616
ARM GAS  C:\Users\matve\AppData\Local\Temp\ccRkZNWM.s 			page 78


 4581 0144 01A2     		adr	r2, .L607
 4582 0146 52F825F0 		ldr	pc, [r2, r5, lsl #2]
 4583 014a 00BF     		.p2align 2
 4584              	.L607:
 4585 014c 4F000000 		.word	.L601+1
 4586 0150 45020000 		.word	.L616+1
 4587 0154 45020000 		.word	.L616+1
 4588 0158 45020000 		.word	.L616+1
 4589 015c 87010000 		.word	.L603+1
 4590 0160 45020000 		.word	.L616+1
 4591 0164 45020000 		.word	.L616+1
 4592 0168 45020000 		.word	.L616+1
 4593 016c BB010000 		.word	.L605+1
 4594 0170 45020000 		.word	.L616+1
 4595 0174 45020000 		.word	.L616+1
 4596 0178 45020000 		.word	.L616+1
 4597 017c E9010000 		.word	.L606+1
 4598              		.p2align 1
 4599              	.L631:
 4600 0180 0222     		movs	r2, #2
 4601 0182 84F83F20 		strb	r2, [r4, #63]
 4602              	.L603:
 4603 0186 A26A     		ldr	r2, [r4, #40]
 4604 0188 3449     		ldr	r1, .L633
 4605 018a 9162     		str	r1, [r2, #40]
 4606 018c A26A     		ldr	r2, [r4, #40]
 4607 018e 3449     		ldr	r1, .L633+4
 4608 0190 D162     		str	r1, [r2, #44]
 4609 0192 A26A     		ldr	r2, [r4, #40]
 4610 0194 3349     		ldr	r1, .L633+8
 4611 0196 1163     		str	r1, [r2, #48]
 4612 0198 2268     		ldr	r2, [r4]
 4613 019a 3832     		adds	r2, r2, #56
 4614 019c 3146     		mov	r1, r6
 4615 019e A06A     		ldr	r0, [r4, #40]
 4616 01a0 FFF7FEFF 		bl	HAL_DMA_Start_IT
 4617 01a4 0028     		cmp	r0, #0
 4618 01a6 51D1     		bne	.L618
 4619 01a8 2268     		ldr	r2, [r4]
 4620 01aa D368     		ldr	r3, [r2, #12]
 4621 01ac 43F48063 		orr	r3, r3, #1024
 4622 01b0 D360     		str	r3, [r2, #12]
 4623 01b2 63E7     		b	.L608
 4624              	.L632:
 4625 01b4 0222     		movs	r2, #2
 4626 01b6 84F84020 		strb	r2, [r4, #64]
 4627              	.L605:
 4628 01ba E26A     		ldr	r2, [r4, #44]
 4629 01bc 2749     		ldr	r1, .L633
 4630 01be 9162     		str	r1, [r2, #40]
 4631 01c0 E26A     		ldr	r2, [r4, #44]
 4632 01c2 2749     		ldr	r1, .L633+4
 4633 01c4 D162     		str	r1, [r2, #44]
 4634 01c6 E26A     		ldr	r2, [r4, #44]
 4635 01c8 2649     		ldr	r1, .L633+8
 4636 01ca 1163     		str	r1, [r2, #48]
 4637 01cc 2268     		ldr	r2, [r4]
ARM GAS  C:\Users\matve\AppData\Local\Temp\ccRkZNWM.s 			page 79


 4638 01ce 3C32     		adds	r2, r2, #60
 4639 01d0 3146     		mov	r1, r6
 4640 01d2 E06A     		ldr	r0, [r4, #44]
 4641 01d4 FFF7FEFF 		bl	HAL_DMA_Start_IT
 4642 01d8 0028     		cmp	r0, #0
 4643 01da 39D1     		bne	.L619
 4644 01dc 2268     		ldr	r2, [r4]
 4645 01de D368     		ldr	r3, [r2, #12]
 4646 01e0 43F40063 		orr	r3, r3, #2048
 4647 01e4 D360     		str	r3, [r2, #12]
 4648 01e6 49E7     		b	.L608
 4649              	.L606:
 4650 01e8 226B     		ldr	r2, [r4, #48]
 4651 01ea 1C49     		ldr	r1, .L633
 4652 01ec 9162     		str	r1, [r2, #40]
 4653 01ee 226B     		ldr	r2, [r4, #48]
 4654 01f0 1B49     		ldr	r1, .L633+4
 4655 01f2 D162     		str	r1, [r2, #44]
 4656 01f4 226B     		ldr	r2, [r4, #48]
 4657 01f6 1B49     		ldr	r1, .L633+8
 4658 01f8 1163     		str	r1, [r2, #48]
 4659 01fa 2268     		ldr	r2, [r4]
 4660 01fc 4032     		adds	r2, r2, #64
 4661 01fe 3146     		mov	r1, r6
 4662 0200 206B     		ldr	r0, [r4, #48]
 4663 0202 FFF7FEFF 		bl	HAL_DMA_Start_IT
 4664 0206 28BB     		cbnz	r0, .L620
 4665 0208 2268     		ldr	r2, [r4]
 4666 020a D368     		ldr	r3, [r2, #12]
 4667 020c 43F48053 		orr	r3, r3, #4096
 4668 0210 D360     		str	r3, [r2, #12]
 4669 0212 33E7     		b	.L608
 4670              	.L626:
 4671 0214 5A6C     		ldr	r2, [r3, #68]
 4672 0216 42F40042 		orr	r2, r2, #32768
 4673 021a 5A64     		str	r2, [r3, #68]
 4674 021c 38E7     		b	.L609
 4675              	.L610:
 4676 021e 9A68     		ldr	r2, [r3, #8]
 4677 0220 02F00702 		and	r2, r2, #7
 4678 0224 062A     		cmp	r2, #6
 4679 0226 17D0     		beq	.L621
 4680 0228 1A68     		ldr	r2, [r3]
 4681 022a 42F00102 		orr	r2, r2, #1
 4682 022e 1A60     		str	r2, [r3]
 4683 0230 0020     		movs	r0, #0
 4684 0232 02E0     		b	.L595
 4685              	.L612:
 4686 0234 0220     		movs	r0, #2
 4687 0236 00E0     		b	.L595
 4688              	.L613:
 4689 0238 0120     		movs	r0, #1
 4690              	.L595:
 4691 023a 70BD     		pop	{r4, r5, r6, pc}
 4692              	.L614:
 4693 023c 0120     		movs	r0, #1
 4694 023e FCE7     		b	.L595
ARM GAS  C:\Users\matve\AppData\Local\Temp\ccRkZNWM.s 			page 80


 4695              	.L615:
 4696 0240 0120     		movs	r0, #1
 4697 0242 FAE7     		b	.L595
 4698              	.L616:
 4699 0244 0120     		movs	r0, #1
 4700 0246 F8E7     		b	.L595
 4701              	.L617:
 4702 0248 0120     		movs	r0, #1
 4703 024a F6E7     		b	.L595
 4704              	.L618:
 4705 024c 0120     		movs	r0, #1
 4706 024e F4E7     		b	.L595
 4707              	.L619:
 4708 0250 0120     		movs	r0, #1
 4709 0252 F2E7     		b	.L595
 4710              	.L620:
 4711 0254 0120     		movs	r0, #1
 4712 0256 F0E7     		b	.L595
 4713              	.L621:
 4714 0258 0020     		movs	r0, #0
 4715 025a EEE7     		b	.L595
 4716              	.L634:
 4717              		.align	2
 4718              	.L633:
 4719 025c 00000000 		.word	TIM_DMADelayPulseCplt
 4720 0260 00000000 		.word	TIM_DMADelayPulseHalfCplt
 4721 0264 00000000 		.word	TIM_DMAError
 4722 0268 002C0140 		.word	1073818624
 4724              		.section	.text.HAL_TIM_OC_Stop_DMA,"ax",%progbits
 4725              		.align	1
 4726              		.global	HAL_TIM_OC_Stop_DMA
 4727              		.syntax unified
 4728              		.thumb
 4729              		.thumb_func
 4731              	HAL_TIM_OC_Stop_DMA:
 4732              		@ args = 0, pretend = 0, frame = 0
 4733              		@ frame_needed = 0, uses_anonymous_args = 0
 4734 0000 38B5     		push	{r3, r4, r5, lr}
 4735 0002 0446     		mov	r4, r0
 4736 0004 0D46     		mov	r5, r1
 4737 0006 0C29     		cmp	r1, #12
 4738 0008 6CD8     		bhi	.L648
 4739 000a DFE801F0 		tbb	[pc, r1]
 4740              	.L638:
 4741 000e 07       		.byte	(.L641-.L638)/2
 4742 000f 6B       		.byte	(.L648-.L638)/2
 4743 0010 6B       		.byte	(.L648-.L638)/2
 4744 0011 6B       		.byte	(.L648-.L638)/2
 4745 0012 2E       		.byte	(.L640-.L638)/2
 4746 0013 6B       		.byte	(.L648-.L638)/2
 4747 0014 6B       		.byte	(.L648-.L638)/2
 4748 0015 6B       		.byte	(.L648-.L638)/2
 4749 0016 37       		.byte	(.L639-.L638)/2
 4750 0017 6B       		.byte	(.L648-.L638)/2
 4751 0018 6B       		.byte	(.L648-.L638)/2
 4752 0019 6B       		.byte	(.L648-.L638)/2
 4753 001a 40       		.byte	(.L637-.L638)/2
ARM GAS  C:\Users\matve\AppData\Local\Temp\ccRkZNWM.s 			page 81


 4754 001b 00       		.p2align 1
 4755              	.L641:
 4756 001c 0268     		ldr	r2, [r0]
 4757 001e D368     		ldr	r3, [r2, #12]
 4758 0020 23F40073 		bic	r3, r3, #512
 4759 0024 D360     		str	r3, [r2, #12]
 4760 0026 406A     		ldr	r0, [r0, #36]
 4761 0028 FFF7FEFF 		bl	HAL_DMA_Abort_IT
 4762              	.L642:
 4763 002c 0022     		movs	r2, #0
 4764 002e 2946     		mov	r1, r5
 4765 0030 2068     		ldr	r0, [r4]
 4766 0032 FFF7FEFF 		bl	TIM_CCxChannelCmd
 4767 0036 2368     		ldr	r3, [r4]
 4768 0038 2B4A     		ldr	r2, .L653
 4769 003a 9342     		cmp	r3, r2
 4770 003c 30D0     		beq	.L650
 4771              	.L643:
 4772 003e 2368     		ldr	r3, [r4]
 4773 0040 196A     		ldr	r1, [r3, #32]
 4774 0042 41F21112 		movw	r2, #4369
 4775 0046 1142     		tst	r1, r2
 4776 0048 08D1     		bne	.L644
 4777 004a 196A     		ldr	r1, [r3, #32]
 4778 004c 40F24442 		movw	r2, #1092
 4779 0050 1142     		tst	r1, r2
 4780 0052 03D1     		bne	.L644
 4781 0054 1A68     		ldr	r2, [r3]
 4782 0056 22F00102 		bic	r2, r2, #1
 4783 005a 1A60     		str	r2, [r3]
 4784              	.L644:
 4785 005c 002D     		cmp	r5, #0
 4786 005e 2ED1     		bne	.L645
 4787 0060 0123     		movs	r3, #1
 4788 0062 84F83E30 		strb	r3, [r4, #62]
 4789 0066 0020     		movs	r0, #0
 4790 0068 3DE0     		b	.L636
 4791              	.L640:
 4792 006a 0268     		ldr	r2, [r0]
 4793 006c D368     		ldr	r3, [r2, #12]
 4794 006e 23F48063 		bic	r3, r3, #1024
 4795 0072 D360     		str	r3, [r2, #12]
 4796 0074 806A     		ldr	r0, [r0, #40]
 4797 0076 FFF7FEFF 		bl	HAL_DMA_Abort_IT
 4798 007a D7E7     		b	.L642
 4799              	.L639:
 4800 007c 0268     		ldr	r2, [r0]
 4801 007e D368     		ldr	r3, [r2, #12]
 4802 0080 23F40063 		bic	r3, r3, #2048
 4803 0084 D360     		str	r3, [r2, #12]
 4804 0086 C06A     		ldr	r0, [r0, #44]
 4805 0088 FFF7FEFF 		bl	HAL_DMA_Abort_IT
 4806 008c CEE7     		b	.L642
 4807              	.L637:
 4808 008e 0268     		ldr	r2, [r0]
 4809 0090 D368     		ldr	r3, [r2, #12]
 4810 0092 23F48053 		bic	r3, r3, #4096
ARM GAS  C:\Users\matve\AppData\Local\Temp\ccRkZNWM.s 			page 82


 4811 0096 D360     		str	r3, [r2, #12]
 4812 0098 006B     		ldr	r0, [r0, #48]
 4813 009a FFF7FEFF 		bl	HAL_DMA_Abort_IT
 4814 009e C5E7     		b	.L642
 4815              	.L650:
 4816 00a0 196A     		ldr	r1, [r3, #32]
 4817 00a2 41F21112 		movw	r2, #4369
 4818 00a6 1142     		tst	r1, r2
 4819 00a8 C9D1     		bne	.L643
 4820 00aa 196A     		ldr	r1, [r3, #32]
 4821 00ac 40F24442 		movw	r2, #1092
 4822 00b0 1142     		tst	r1, r2
 4823 00b2 C4D1     		bne	.L643
 4824 00b4 5A6C     		ldr	r2, [r3, #68]
 4825 00b6 22F40042 		bic	r2, r2, #32768
 4826 00ba 5A64     		str	r2, [r3, #68]
 4827 00bc BFE7     		b	.L643
 4828              	.L645:
 4829 00be 042D     		cmp	r5, #4
 4830 00c0 06D0     		beq	.L651
 4831 00c2 082D     		cmp	r5, #8
 4832 00c4 09D0     		beq	.L652
 4833 00c6 0123     		movs	r3, #1
 4834 00c8 84F84130 		strb	r3, [r4, #65]
 4835 00cc 0020     		movs	r0, #0
 4836 00ce 0AE0     		b	.L636
 4837              	.L651:
 4838 00d0 0123     		movs	r3, #1
 4839 00d2 84F83F30 		strb	r3, [r4, #63]
 4840 00d6 0020     		movs	r0, #0
 4841 00d8 05E0     		b	.L636
 4842              	.L652:
 4843 00da 0123     		movs	r3, #1
 4844 00dc 84F84030 		strb	r3, [r4, #64]
 4845 00e0 0020     		movs	r0, #0
 4846 00e2 00E0     		b	.L636
 4847              	.L648:
 4848 00e4 0120     		movs	r0, #1
 4849              	.L636:
 4850 00e6 38BD     		pop	{r3, r4, r5, pc}
 4851              	.L654:
 4852              		.align	2
 4853              	.L653:
 4854 00e8 002C0140 		.word	1073818624
 4856              		.section	.text.HAL_TIM_PWM_Start,"ax",%progbits
 4857              		.align	1
 4858              		.global	HAL_TIM_PWM_Start
 4859              		.syntax unified
 4860              		.thumb
 4861              		.thumb_func
 4863              	HAL_TIM_PWM_Start:
 4864              		@ args = 0, pretend = 0, frame = 0
 4865              		@ frame_needed = 0, uses_anonymous_args = 0
 4866 0000 10B5     		push	{r4, lr}
 4867 0002 0446     		mov	r4, r0
 4868 0004 0846     		mov	r0, r1
 4869 0006 51BB     		cbnz	r1, .L656
ARM GAS  C:\Users\matve\AppData\Local\Temp\ccRkZNWM.s 			page 83


 4870 0008 94F83E30 		ldrb	r3, [r4, #62]	@ zero_extendqisi2
 4871 000c DBB2     		uxtb	r3, r3
 4872 000e 013B     		subs	r3, r3, #1
 4873 0010 18BF     		it	ne
 4874 0012 0123     		movne	r3, #1
 4875              	.L657:
 4876 0014 002B     		cmp	r3, #0
 4877 0016 5BD1     		bne	.L668
 4878 0018 0028     		cmp	r0, #0
 4879 001a 39D1     		bne	.L661
 4880 001c 0223     		movs	r3, #2
 4881 001e 84F83E30 		strb	r3, [r4, #62]
 4882              	.L662:
 4883 0022 0122     		movs	r2, #1
 4884 0024 0146     		mov	r1, r0
 4885 0026 2068     		ldr	r0, [r4]
 4886 0028 FFF7FEFF 		bl	TIM_CCxChannelCmd
 4887 002c 2368     		ldr	r3, [r4]
 4888 002e 2A4A     		ldr	r2, .L676
 4889 0030 9342     		cmp	r3, r2
 4890 0032 3DD0     		beq	.L671
 4891              	.L665:
 4892 0034 2368     		ldr	r3, [r4]
 4893 0036 284A     		ldr	r2, .L676
 4894 0038 9342     		cmp	r3, r2
 4895 003a 3ED0     		beq	.L666
 4896 003c B3F1804F 		cmp	r3, #1073741824
 4897 0040 3BD0     		beq	.L666
 4898 0042 A2F59432 		sub	r2, r2, #75776
 4899 0046 9342     		cmp	r3, r2
 4900 0048 37D0     		beq	.L666
 4901 004a 02F58062 		add	r2, r2, #1024
 4902 004e 9342     		cmp	r3, r2
 4903 0050 33D0     		beq	.L666
 4904 0052 1A68     		ldr	r2, [r3]
 4905 0054 42F00102 		orr	r2, r2, #1
 4906 0058 1A60     		str	r2, [r3]
 4907 005a 0020     		movs	r0, #0
 4908 005c 39E0     		b	.L660
 4909              	.L656:
 4910 005e 0429     		cmp	r1, #4
 4911 0060 08D0     		beq	.L672
 4912 0062 0829     		cmp	r1, #8
 4913 0064 0DD0     		beq	.L673
 4914 0066 94F84130 		ldrb	r3, [r4, #65]	@ zero_extendqisi2
 4915 006a DBB2     		uxtb	r3, r3
 4916 006c 013B     		subs	r3, r3, #1
 4917 006e 18BF     		it	ne
 4918 0070 0123     		movne	r3, #1
 4919 0072 CFE7     		b	.L657
 4920              	.L672:
 4921 0074 94F83F30 		ldrb	r3, [r4, #63]	@ zero_extendqisi2
 4922 0078 DBB2     		uxtb	r3, r3
 4923 007a 013B     		subs	r3, r3, #1
 4924 007c 18BF     		it	ne
 4925 007e 0123     		movne	r3, #1
 4926 0080 C8E7     		b	.L657
ARM GAS  C:\Users\matve\AppData\Local\Temp\ccRkZNWM.s 			page 84


 4927              	.L673:
 4928 0082 94F84030 		ldrb	r3, [r4, #64]	@ zero_extendqisi2
 4929 0086 DBB2     		uxtb	r3, r3
 4930 0088 013B     		subs	r3, r3, #1
 4931 008a 18BF     		it	ne
 4932 008c 0123     		movne	r3, #1
 4933 008e C1E7     		b	.L657
 4934              	.L661:
 4935 0090 0428     		cmp	r0, #4
 4936 0092 05D0     		beq	.L674
 4937 0094 0828     		cmp	r0, #8
 4938 0096 07D0     		beq	.L675
 4939 0098 0223     		movs	r3, #2
 4940 009a 84F84130 		strb	r3, [r4, #65]
 4941 009e C0E7     		b	.L662
 4942              	.L674:
 4943 00a0 0223     		movs	r3, #2
 4944 00a2 84F83F30 		strb	r3, [r4, #63]
 4945 00a6 BCE7     		b	.L662
 4946              	.L675:
 4947 00a8 0223     		movs	r3, #2
 4948 00aa 84F84030 		strb	r3, [r4, #64]
 4949 00ae B8E7     		b	.L662
 4950              	.L671:
 4951 00b0 5A6C     		ldr	r2, [r3, #68]
 4952 00b2 42F40042 		orr	r2, r2, #32768
 4953 00b6 5A64     		str	r2, [r3, #68]
 4954 00b8 BCE7     		b	.L665
 4955              	.L666:
 4956 00ba 9A68     		ldr	r2, [r3, #8]
 4957 00bc 02F00702 		and	r2, r2, #7
 4958 00c0 062A     		cmp	r2, #6
 4959 00c2 07D0     		beq	.L669
 4960 00c4 1A68     		ldr	r2, [r3]
 4961 00c6 42F00102 		orr	r2, r2, #1
 4962 00ca 1A60     		str	r2, [r3]
 4963 00cc 0020     		movs	r0, #0
 4964 00ce 00E0     		b	.L660
 4965              	.L668:
 4966 00d0 0120     		movs	r0, #1
 4967              	.L660:
 4968 00d2 10BD     		pop	{r4, pc}
 4969              	.L669:
 4970 00d4 0020     		movs	r0, #0
 4971 00d6 FCE7     		b	.L660
 4972              	.L677:
 4973              		.align	2
 4974              	.L676:
 4975 00d8 002C0140 		.word	1073818624
 4977              		.section	.text.HAL_TIM_PWM_Stop,"ax",%progbits
 4978              		.align	1
 4979              		.global	HAL_TIM_PWM_Stop
 4980              		.syntax unified
 4981              		.thumb
 4982              		.thumb_func
 4984              	HAL_TIM_PWM_Stop:
 4985              		@ args = 0, pretend = 0, frame = 0
ARM GAS  C:\Users\matve\AppData\Local\Temp\ccRkZNWM.s 			page 85


 4986              		@ frame_needed = 0, uses_anonymous_args = 0
 4987 0000 38B5     		push	{r3, r4, r5, lr}
 4988 0002 0446     		mov	r4, r0
 4989 0004 0D46     		mov	r5, r1
 4990 0006 0022     		movs	r2, #0
 4991 0008 0068     		ldr	r0, [r0]
 4992 000a FFF7FEFF 		bl	TIM_CCxChannelCmd
 4993 000e 2368     		ldr	r3, [r4]
 4994 0010 1B4A     		ldr	r2, .L689
 4995 0012 9342     		cmp	r3, r2
 4996 0014 14D0     		beq	.L686
 4997              	.L679:
 4998 0016 2368     		ldr	r3, [r4]
 4999 0018 196A     		ldr	r1, [r3, #32]
 5000 001a 41F21112 		movw	r2, #4369
 5001 001e 1142     		tst	r1, r2
 5002 0020 08D1     		bne	.L680
 5003 0022 196A     		ldr	r1, [r3, #32]
 5004 0024 40F24442 		movw	r2, #1092
 5005 0028 1142     		tst	r1, r2
 5006 002a 03D1     		bne	.L680
 5007 002c 1A68     		ldr	r2, [r3]
 5008 002e 22F00102 		bic	r2, r2, #1
 5009 0032 1A60     		str	r2, [r3]
 5010              	.L680:
 5011 0034 9DB9     		cbnz	r5, .L681
 5012 0036 0123     		movs	r3, #1
 5013 0038 84F83E30 		strb	r3, [r4, #62]
 5014              	.L682:
 5015 003c 0020     		movs	r0, #0
 5016 003e 38BD     		pop	{r3, r4, r5, pc}
 5017              	.L686:
 5018 0040 196A     		ldr	r1, [r3, #32]
 5019 0042 41F21112 		movw	r2, #4369
 5020 0046 1142     		tst	r1, r2
 5021 0048 E5D1     		bne	.L679
 5022 004a 196A     		ldr	r1, [r3, #32]
 5023 004c 40F24442 		movw	r2, #1092
 5024 0050 1142     		tst	r1, r2
 5025 0052 E0D1     		bne	.L679
 5026 0054 5A6C     		ldr	r2, [r3, #68]
 5027 0056 22F40042 		bic	r2, r2, #32768
 5028 005a 5A64     		str	r2, [r3, #68]
 5029 005c DBE7     		b	.L679
 5030              	.L681:
 5031 005e 042D     		cmp	r5, #4
 5032 0060 05D0     		beq	.L687
 5033 0062 082D     		cmp	r5, #8
 5034 0064 07D0     		beq	.L688
 5035 0066 0123     		movs	r3, #1
 5036 0068 84F84130 		strb	r3, [r4, #65]
 5037 006c E6E7     		b	.L682
 5038              	.L687:
 5039 006e 0123     		movs	r3, #1
 5040 0070 84F83F30 		strb	r3, [r4, #63]
 5041 0074 E2E7     		b	.L682
 5042              	.L688:
ARM GAS  C:\Users\matve\AppData\Local\Temp\ccRkZNWM.s 			page 86


 5043 0076 0123     		movs	r3, #1
 5044 0078 84F84030 		strb	r3, [r4, #64]
 5045 007c DEE7     		b	.L682
 5046              	.L690:
 5047 007e 00BF     		.align	2
 5048              	.L689:
 5049 0080 002C0140 		.word	1073818624
 5051              		.section	.text.HAL_TIM_PWM_Start_IT,"ax",%progbits
 5052              		.align	1
 5053              		.global	HAL_TIM_PWM_Start_IT
 5054              		.syntax unified
 5055              		.thumb
 5056              		.thumb_func
 5058              	HAL_TIM_PWM_Start_IT:
 5059              		@ args = 0, pretend = 0, frame = 0
 5060              		@ frame_needed = 0, uses_anonymous_args = 0
 5061 0000 10B5     		push	{r4, lr}
 5062 0002 0446     		mov	r4, r0
 5063 0004 0846     		mov	r0, r1
 5064 0006 0029     		cmp	r1, #0
 5065 0008 30D1     		bne	.L692
 5066 000a 94F83E30 		ldrb	r3, [r4, #62]	@ zero_extendqisi2
 5067 000e DBB2     		uxtb	r3, r3
 5068 0010 013B     		subs	r3, r3, #1
 5069 0012 18BF     		it	ne
 5070 0014 0123     		movne	r3, #1
 5071              	.L693:
 5072 0016 002B     		cmp	r3, #0
 5073 0018 40F09080 		bne	.L709
 5074 001c 0028     		cmp	r0, #0
 5075 001e 3ED1     		bne	.L697
 5076 0020 0223     		movs	r3, #2
 5077 0022 84F83E30 		strb	r3, [r4, #62]
 5078              	.L698:
 5079 0026 2268     		ldr	r2, [r4]
 5080 0028 D368     		ldr	r3, [r2, #12]
 5081 002a 43F00203 		orr	r3, r3, #2
 5082 002e D360     		str	r3, [r2, #12]
 5083              	.L705:
 5084 0030 0122     		movs	r2, #1
 5085 0032 0146     		mov	r1, r0
 5086 0034 2068     		ldr	r0, [r4]
 5087 0036 FFF7FEFF 		bl	TIM_CCxChannelCmd
 5088 003a 2368     		ldr	r3, [r4]
 5089 003c 424A     		ldr	r2, .L721
 5090 003e 9342     		cmp	r3, r2
 5091 0040 6CD0     		beq	.L716
 5092              	.L706:
 5093 0042 2368     		ldr	r3, [r4]
 5094 0044 404A     		ldr	r2, .L721
 5095 0046 9342     		cmp	r3, r2
 5096 0048 6DD0     		beq	.L707
 5097 004a B3F1804F 		cmp	r3, #1073741824
 5098 004e 6AD0     		beq	.L707
 5099 0050 A2F59432 		sub	r2, r2, #75776
 5100 0054 9342     		cmp	r3, r2
 5101 0056 66D0     		beq	.L707
ARM GAS  C:\Users\matve\AppData\Local\Temp\ccRkZNWM.s 			page 87


 5102 0058 02F58062 		add	r2, r2, #1024
 5103 005c 9342     		cmp	r3, r2
 5104 005e 62D0     		beq	.L707
 5105 0060 1A68     		ldr	r2, [r3]
 5106 0062 42F00102 		orr	r2, r2, #1
 5107 0066 1A60     		str	r2, [r3]
 5108 0068 0020     		movs	r0, #0
 5109 006a 68E0     		b	.L696
 5110              	.L692:
 5111 006c 0429     		cmp	r1, #4
 5112 006e 08D0     		beq	.L717
 5113 0070 0829     		cmp	r1, #8
 5114 0072 0DD0     		beq	.L718
 5115 0074 94F84130 		ldrb	r3, [r4, #65]	@ zero_extendqisi2
 5116 0078 DBB2     		uxtb	r3, r3
 5117 007a 013B     		subs	r3, r3, #1
 5118 007c 18BF     		it	ne
 5119 007e 0123     		movne	r3, #1
 5120 0080 C9E7     		b	.L693
 5121              	.L717:
 5122 0082 94F83F30 		ldrb	r3, [r4, #63]	@ zero_extendqisi2
 5123 0086 DBB2     		uxtb	r3, r3
 5124 0088 013B     		subs	r3, r3, #1
 5125 008a 18BF     		it	ne
 5126 008c 0123     		movne	r3, #1
 5127 008e C2E7     		b	.L693
 5128              	.L718:
 5129 0090 94F84030 		ldrb	r3, [r4, #64]	@ zero_extendqisi2
 5130 0094 DBB2     		uxtb	r3, r3
 5131 0096 013B     		subs	r3, r3, #1
 5132 0098 18BF     		it	ne
 5133 009a 0123     		movne	r3, #1
 5134 009c BBE7     		b	.L693
 5135              	.L697:
 5136 009e 0428     		cmp	r0, #4
 5137 00a0 24D0     		beq	.L719
 5138 00a2 0828     		cmp	r0, #8
 5139 00a4 2BD0     		beq	.L720
 5140 00a6 0223     		movs	r3, #2
 5141 00a8 84F84130 		strb	r3, [r4, #65]
 5142 00ac 0C28     		cmp	r0, #12
 5143 00ae 47D8     		bhi	.L710
 5144 00b0 01A3     		adr	r3, .L704
 5145 00b2 53F820F0 		ldr	pc, [r3, r0, lsl #2]
 5146 00b6 00BF     		.p2align 2
 5147              	.L704:
 5148 00b8 27000000 		.word	.L698+1
 5149 00bc 41010000 		.word	.L710+1
 5150 00c0 41010000 		.word	.L710+1
 5151 00c4 41010000 		.word	.L710+1
 5152 00c8 F3000000 		.word	.L700+1
 5153 00cc 41010000 		.word	.L710+1
 5154 00d0 41010000 		.word	.L710+1
 5155 00d4 41010000 		.word	.L710+1
 5156 00d8 05010000 		.word	.L702+1
 5157 00dc 41010000 		.word	.L710+1
 5158 00e0 41010000 		.word	.L710+1
ARM GAS  C:\Users\matve\AppData\Local\Temp\ccRkZNWM.s 			page 88


 5159 00e4 41010000 		.word	.L710+1
 5160 00e8 11010000 		.word	.L703+1
 5161              		.p2align 1
 5162              	.L719:
 5163 00ec 0223     		movs	r3, #2
 5164 00ee 84F83F30 		strb	r3, [r4, #63]
 5165              	.L700:
 5166 00f2 2268     		ldr	r2, [r4]
 5167 00f4 D368     		ldr	r3, [r2, #12]
 5168 00f6 43F00403 		orr	r3, r3, #4
 5169 00fa D360     		str	r3, [r2, #12]
 5170 00fc 98E7     		b	.L705
 5171              	.L720:
 5172 00fe 0223     		movs	r3, #2
 5173 0100 84F84030 		strb	r3, [r4, #64]
 5174              	.L702:
 5175 0104 2268     		ldr	r2, [r4]
 5176 0106 D368     		ldr	r3, [r2, #12]
 5177 0108 43F00803 		orr	r3, r3, #8
 5178 010c D360     		str	r3, [r2, #12]
 5179 010e 8FE7     		b	.L705
 5180              	.L703:
 5181 0110 2268     		ldr	r2, [r4]
 5182 0112 D368     		ldr	r3, [r2, #12]
 5183 0114 43F01003 		orr	r3, r3, #16
 5184 0118 D360     		str	r3, [r2, #12]
 5185 011a 89E7     		b	.L705
 5186              	.L716:
 5187 011c 5A6C     		ldr	r2, [r3, #68]
 5188 011e 42F40042 		orr	r2, r2, #32768
 5189 0122 5A64     		str	r2, [r3, #68]
 5190 0124 8DE7     		b	.L706
 5191              	.L707:
 5192 0126 9A68     		ldr	r2, [r3, #8]
 5193 0128 02F00702 		and	r2, r2, #7
 5194 012c 062A     		cmp	r2, #6
 5195 012e 09D0     		beq	.L711
 5196 0130 1A68     		ldr	r2, [r3]
 5197 0132 42F00102 		orr	r2, r2, #1
 5198 0136 1A60     		str	r2, [r3]
 5199 0138 0020     		movs	r0, #0
 5200 013a 00E0     		b	.L696
 5201              	.L709:
 5202 013c 0120     		movs	r0, #1
 5203              	.L696:
 5204 013e 10BD     		pop	{r4, pc}
 5205              	.L710:
 5206 0140 0120     		movs	r0, #1
 5207 0142 FCE7     		b	.L696
 5208              	.L711:
 5209 0144 0020     		movs	r0, #0
 5210 0146 FAE7     		b	.L696
 5211              	.L722:
 5212              		.align	2
 5213              	.L721:
 5214 0148 002C0140 		.word	1073818624
 5216              		.section	.text.HAL_TIM_PWM_Stop_IT,"ax",%progbits
ARM GAS  C:\Users\matve\AppData\Local\Temp\ccRkZNWM.s 			page 89


 5217              		.align	1
 5218              		.global	HAL_TIM_PWM_Stop_IT
 5219              		.syntax unified
 5220              		.thumb
 5221              		.thumb_func
 5223              	HAL_TIM_PWM_Stop_IT:
 5224              		@ args = 0, pretend = 0, frame = 0
 5225              		@ frame_needed = 0, uses_anonymous_args = 0
 5226 0000 38B5     		push	{r3, r4, r5, lr}
 5227 0002 0546     		mov	r5, r0
 5228 0004 0C46     		mov	r4, r1
 5229 0006 0C29     		cmp	r1, #12
 5230 0008 5FD8     		bhi	.L736
 5231 000a DFE801F0 		tbb	[pc, r1]
 5232              	.L726:
 5233 000e 07       		.byte	(.L729-.L726)/2
 5234 000f 5E       		.byte	(.L736-.L726)/2
 5235 0010 5E       		.byte	(.L736-.L726)/2
 5236 0011 5E       		.byte	(.L736-.L726)/2
 5237 0012 2A       		.byte	(.L728-.L726)/2
 5238 0013 5E       		.byte	(.L736-.L726)/2
 5239 0014 5E       		.byte	(.L736-.L726)/2
 5240 0015 5E       		.byte	(.L736-.L726)/2
 5241 0016 30       		.byte	(.L727-.L726)/2
 5242 0017 5E       		.byte	(.L736-.L726)/2
 5243 0018 5E       		.byte	(.L736-.L726)/2
 5244 0019 5E       		.byte	(.L736-.L726)/2
 5245 001a 36       		.byte	(.L725-.L726)/2
 5246 001b 00       		.p2align 1
 5247              	.L729:
 5248 001c 0268     		ldr	r2, [r0]
 5249 001e D368     		ldr	r3, [r2, #12]
 5250 0020 23F00203 		bic	r3, r3, #2
 5251 0024 D360     		str	r3, [r2, #12]
 5252              	.L730:
 5253 0026 0022     		movs	r2, #0
 5254 0028 2146     		mov	r1, r4
 5255 002a 2868     		ldr	r0, [r5]
 5256 002c FFF7FEFF 		bl	TIM_CCxChannelCmd
 5257 0030 2B68     		ldr	r3, [r5]
 5258 0032 274A     		ldr	r2, .L741
 5259 0034 9342     		cmp	r3, r2
 5260 0036 26D0     		beq	.L738
 5261              	.L731:
 5262 0038 2B68     		ldr	r3, [r5]
 5263 003a 196A     		ldr	r1, [r3, #32]
 5264 003c 41F21112 		movw	r2, #4369
 5265 0040 1142     		tst	r1, r2
 5266 0042 08D1     		bne	.L732
 5267 0044 196A     		ldr	r1, [r3, #32]
 5268 0046 40F24442 		movw	r2, #1092
 5269 004a 1142     		tst	r1, r2
 5270 004c 03D1     		bne	.L732
 5271 004e 1A68     		ldr	r2, [r3]
 5272 0050 22F00102 		bic	r2, r2, #1
 5273 0054 1A60     		str	r2, [r3]
 5274              	.L732:
ARM GAS  C:\Users\matve\AppData\Local\Temp\ccRkZNWM.s 			page 90


 5275 0056 2CBB     		cbnz	r4, .L733
 5276 0058 0123     		movs	r3, #1
 5277 005a 85F83E30 		strb	r3, [r5, #62]
 5278 005e 0020     		movs	r0, #0
 5279 0060 34E0     		b	.L724
 5280              	.L728:
 5281 0062 0268     		ldr	r2, [r0]
 5282 0064 D368     		ldr	r3, [r2, #12]
 5283 0066 23F00403 		bic	r3, r3, #4
 5284 006a D360     		str	r3, [r2, #12]
 5285 006c DBE7     		b	.L730
 5286              	.L727:
 5287 006e 0268     		ldr	r2, [r0]
 5288 0070 D368     		ldr	r3, [r2, #12]
 5289 0072 23F00803 		bic	r3, r3, #8
 5290 0076 D360     		str	r3, [r2, #12]
 5291 0078 D5E7     		b	.L730
 5292              	.L725:
 5293 007a 0268     		ldr	r2, [r0]
 5294 007c D368     		ldr	r3, [r2, #12]
 5295 007e 23F01003 		bic	r3, r3, #16
 5296 0082 D360     		str	r3, [r2, #12]
 5297 0084 CFE7     		b	.L730
 5298              	.L738:
 5299 0086 196A     		ldr	r1, [r3, #32]
 5300 0088 41F21112 		movw	r2, #4369
 5301 008c 1142     		tst	r1, r2
 5302 008e D3D1     		bne	.L731
 5303 0090 196A     		ldr	r1, [r3, #32]
 5304 0092 40F24442 		movw	r2, #1092
 5305 0096 1142     		tst	r1, r2
 5306 0098 CED1     		bne	.L731
 5307 009a 5A6C     		ldr	r2, [r3, #68]
 5308 009c 22F40042 		bic	r2, r2, #32768
 5309 00a0 5A64     		str	r2, [r3, #68]
 5310 00a2 C9E7     		b	.L731
 5311              	.L733:
 5312 00a4 042C     		cmp	r4, #4
 5313 00a6 06D0     		beq	.L739
 5314 00a8 082C     		cmp	r4, #8
 5315 00aa 09D0     		beq	.L740
 5316 00ac 0123     		movs	r3, #1
 5317 00ae 85F84130 		strb	r3, [r5, #65]
 5318 00b2 0020     		movs	r0, #0
 5319 00b4 0AE0     		b	.L724
 5320              	.L739:
 5321 00b6 0123     		movs	r3, #1
 5322 00b8 85F83F30 		strb	r3, [r5, #63]
 5323 00bc 0020     		movs	r0, #0
 5324 00be 05E0     		b	.L724
 5325              	.L740:
 5326 00c0 0123     		movs	r3, #1
 5327 00c2 85F84030 		strb	r3, [r5, #64]
 5328 00c6 0020     		movs	r0, #0
 5329 00c8 00E0     		b	.L724
 5330              	.L736:
 5331 00ca 0120     		movs	r0, #1
ARM GAS  C:\Users\matve\AppData\Local\Temp\ccRkZNWM.s 			page 91


 5332              	.L724:
 5333 00cc 38BD     		pop	{r3, r4, r5, pc}
 5334              	.L742:
 5335 00ce 00BF     		.align	2
 5336              	.L741:
 5337 00d0 002C0140 		.word	1073818624
 5339              		.section	.text.HAL_TIM_PWM_Start_DMA,"ax",%progbits
 5340              		.align	1
 5341              		.global	HAL_TIM_PWM_Start_DMA
 5342              		.syntax unified
 5343              		.thumb
 5344              		.thumb_func
 5346              	HAL_TIM_PWM_Start_DMA:
 5347              		@ args = 0, pretend = 0, frame = 0
 5348              		@ frame_needed = 0, uses_anonymous_args = 0
 5349 0000 70B5     		push	{r4, r5, r6, lr}
 5350 0002 0446     		mov	r4, r0
 5351 0004 1646     		mov	r6, r2
 5352 0006 0D46     		mov	r5, r1
 5353 0008 0029     		cmp	r1, #0
 5354 000a 5AD1     		bne	.L744
 5355 000c 90F83E00 		ldrb	r0, [r0, #62]	@ zero_extendqisi2
 5356 0010 C0B2     		uxtb	r0, r0
 5357 0012 0228     		cmp	r0, #2
 5358 0014 14BF     		ite	ne
 5359 0016 0020     		movne	r0, #0
 5360 0018 0120     		moveq	r0, #1
 5361              	.L745:
 5362 001a 0028     		cmp	r0, #0
 5363 001c 40F00A81 		bne	.L765
 5364 0020 002D     		cmp	r5, #0
 5365 0022 6AD1     		bne	.L749
 5366 0024 94F83E20 		ldrb	r2, [r4, #62]	@ zero_extendqisi2
 5367 0028 D2B2     		uxtb	r2, r2
 5368 002a 012A     		cmp	r2, #1
 5369 002c 14BF     		ite	ne
 5370 002e 0022     		movne	r2, #0
 5371 0030 0122     		moveq	r2, #1
 5372              	.L750:
 5373 0032 002A     		cmp	r2, #0
 5374 0034 00F00081 		beq	.L766
 5375 0038 002E     		cmp	r6, #0
 5376 003a 00F0FF80 		beq	.L767
 5377 003e 002B     		cmp	r3, #0
 5378 0040 00F0FE80 		beq	.L768
 5379 0044 002D     		cmp	r5, #0
 5380 0046 74D1     		bne	.L753
 5381 0048 0222     		movs	r2, #2
 5382 004a 84F83E20 		strb	r2, [r4, #62]
 5383              	.L754:
 5384 004e 626A     		ldr	r2, [r4, #36]
 5385 0050 8249     		ldr	r1, .L786
 5386 0052 9162     		str	r1, [r2, #40]
 5387 0054 626A     		ldr	r2, [r4, #36]
 5388 0056 8249     		ldr	r1, .L786+4
 5389 0058 D162     		str	r1, [r2, #44]
 5390 005a 626A     		ldr	r2, [r4, #36]
ARM GAS  C:\Users\matve\AppData\Local\Temp\ccRkZNWM.s 			page 92


 5391 005c 8149     		ldr	r1, .L786+8
 5392 005e 1163     		str	r1, [r2, #48]
 5393 0060 2268     		ldr	r2, [r4]
 5394 0062 3432     		adds	r2, r2, #52
 5395 0064 3146     		mov	r1, r6
 5396 0066 606A     		ldr	r0, [r4, #36]
 5397 0068 FFF7FEFF 		bl	HAL_DMA_Start_IT
 5398 006c 0028     		cmp	r0, #0
 5399 006e 40F0EB80 		bne	.L770
 5400 0072 2268     		ldr	r2, [r4]
 5401 0074 D368     		ldr	r3, [r2, #12]
 5402 0076 43F40073 		orr	r3, r3, #512
 5403 007a D360     		str	r3, [r2, #12]
 5404              	.L761:
 5405 007c 0122     		movs	r2, #1
 5406 007e 2946     		mov	r1, r5
 5407 0080 2068     		ldr	r0, [r4]
 5408 0082 FFF7FEFF 		bl	TIM_CCxChannelCmd
 5409 0086 2368     		ldr	r3, [r4]
 5410 0088 774A     		ldr	r2, .L786+12
 5411 008a 9342     		cmp	r3, r2
 5412 008c 00F0C280 		beq	.L779
 5413              	.L762:
 5414 0090 2368     		ldr	r3, [r4]
 5415 0092 754A     		ldr	r2, .L786+12
 5416 0094 9342     		cmp	r3, r2
 5417 0096 00F0C280 		beq	.L763
 5418 009a B3F1804F 		cmp	r3, #1073741824
 5419 009e 00F0BE80 		beq	.L763
 5420 00a2 A2F59432 		sub	r2, r2, #75776
 5421 00a6 9342     		cmp	r3, r2
 5422 00a8 00F0B980 		beq	.L763
 5423 00ac 02F58062 		add	r2, r2, #1024
 5424 00b0 9342     		cmp	r3, r2
 5425 00b2 00F0B480 		beq	.L763
 5426 00b6 1A68     		ldr	r2, [r3]
 5427 00b8 42F00102 		orr	r2, r2, #1
 5428 00bc 1A60     		str	r2, [r3]
 5429 00be 0020     		movs	r0, #0
 5430 00c0 BBE0     		b	.L748
 5431              	.L744:
 5432 00c2 0429     		cmp	r1, #4
 5433 00c4 09D0     		beq	.L780
 5434 00c6 0829     		cmp	r1, #8
 5435 00c8 0FD0     		beq	.L781
 5436 00ca 90F84100 		ldrb	r0, [r0, #65]	@ zero_extendqisi2
 5437 00ce C0B2     		uxtb	r0, r0
 5438 00d0 0228     		cmp	r0, #2
 5439 00d2 14BF     		ite	ne
 5440 00d4 0020     		movne	r0, #0
 5441 00d6 0120     		moveq	r0, #1
 5442 00d8 9FE7     		b	.L745
 5443              	.L780:
 5444 00da 90F83F00 		ldrb	r0, [r0, #63]	@ zero_extendqisi2
 5445 00de C0B2     		uxtb	r0, r0
 5446 00e0 0228     		cmp	r0, #2
 5447 00e2 14BF     		ite	ne
ARM GAS  C:\Users\matve\AppData\Local\Temp\ccRkZNWM.s 			page 93


 5448 00e4 0020     		movne	r0, #0
 5449 00e6 0120     		moveq	r0, #1
 5450 00e8 97E7     		b	.L745
 5451              	.L781:
 5452 00ea 90F84000 		ldrb	r0, [r0, #64]	@ zero_extendqisi2
 5453 00ee C0B2     		uxtb	r0, r0
 5454 00f0 0228     		cmp	r0, #2
 5455 00f2 14BF     		ite	ne
 5456 00f4 0020     		movne	r0, #0
 5457 00f6 0120     		moveq	r0, #1
 5458 00f8 8FE7     		b	.L745
 5459              	.L749:
 5460 00fa 042D     		cmp	r5, #4
 5461 00fc 09D0     		beq	.L782
 5462 00fe 082D     		cmp	r5, #8
 5463 0100 0FD0     		beq	.L783
 5464 0102 94F84120 		ldrb	r2, [r4, #65]	@ zero_extendqisi2
 5465 0106 D2B2     		uxtb	r2, r2
 5466 0108 012A     		cmp	r2, #1
 5467 010a 14BF     		ite	ne
 5468 010c 0022     		movne	r2, #0
 5469 010e 0122     		moveq	r2, #1
 5470 0110 8FE7     		b	.L750
 5471              	.L782:
 5472 0112 94F83F20 		ldrb	r2, [r4, #63]	@ zero_extendqisi2
 5473 0116 D2B2     		uxtb	r2, r2
 5474 0118 012A     		cmp	r2, #1
 5475 011a 14BF     		ite	ne
 5476 011c 0022     		movne	r2, #0
 5477 011e 0122     		moveq	r2, #1
 5478 0120 87E7     		b	.L750
 5479              	.L783:
 5480 0122 94F84020 		ldrb	r2, [r4, #64]	@ zero_extendqisi2
 5481 0126 D2B2     		uxtb	r2, r2
 5482 0128 012A     		cmp	r2, #1
 5483 012a 14BF     		ite	ne
 5484 012c 0022     		movne	r2, #0
 5485 012e 0122     		moveq	r2, #1
 5486 0130 7FE7     		b	.L750
 5487              	.L753:
 5488 0132 042D     		cmp	r5, #4
 5489 0134 24D0     		beq	.L784
 5490 0136 082D     		cmp	r5, #8
 5491 0138 3CD0     		beq	.L785
 5492 013a 0222     		movs	r2, #2
 5493 013c 84F84120 		strb	r2, [r4, #65]
 5494 0140 0C2D     		cmp	r5, #12
 5495 0142 7FD8     		bhi	.L769
 5496 0144 01A2     		adr	r2, .L760
 5497 0146 52F825F0 		ldr	pc, [r2, r5, lsl #2]
 5498 014a 00BF     		.p2align 2
 5499              	.L760:
 5500 014c 4F000000 		.word	.L754+1
 5501 0150 45020000 		.word	.L769+1
 5502 0154 45020000 		.word	.L769+1
 5503 0158 45020000 		.word	.L769+1
 5504 015c 87010000 		.word	.L756+1
ARM GAS  C:\Users\matve\AppData\Local\Temp\ccRkZNWM.s 			page 94


 5505 0160 45020000 		.word	.L769+1
 5506 0164 45020000 		.word	.L769+1
 5507 0168 45020000 		.word	.L769+1
 5508 016c BB010000 		.word	.L758+1
 5509 0170 45020000 		.word	.L769+1
 5510 0174 45020000 		.word	.L769+1
 5511 0178 45020000 		.word	.L769+1
 5512 017c E9010000 		.word	.L759+1
 5513              		.p2align 1
 5514              	.L784:
 5515 0180 0222     		movs	r2, #2
 5516 0182 84F83F20 		strb	r2, [r4, #63]
 5517              	.L756:
 5518 0186 A26A     		ldr	r2, [r4, #40]
 5519 0188 3449     		ldr	r1, .L786
 5520 018a 9162     		str	r1, [r2, #40]
 5521 018c A26A     		ldr	r2, [r4, #40]
 5522 018e 3449     		ldr	r1, .L786+4
 5523 0190 D162     		str	r1, [r2, #44]
 5524 0192 A26A     		ldr	r2, [r4, #40]
 5525 0194 3349     		ldr	r1, .L786+8
 5526 0196 1163     		str	r1, [r2, #48]
 5527 0198 2268     		ldr	r2, [r4]
 5528 019a 3832     		adds	r2, r2, #56
 5529 019c 3146     		mov	r1, r6
 5530 019e A06A     		ldr	r0, [r4, #40]
 5531 01a0 FFF7FEFF 		bl	HAL_DMA_Start_IT
 5532 01a4 0028     		cmp	r0, #0
 5533 01a6 51D1     		bne	.L771
 5534 01a8 2268     		ldr	r2, [r4]
 5535 01aa D368     		ldr	r3, [r2, #12]
 5536 01ac 43F48063 		orr	r3, r3, #1024
 5537 01b0 D360     		str	r3, [r2, #12]
 5538 01b2 63E7     		b	.L761
 5539              	.L785:
 5540 01b4 0222     		movs	r2, #2
 5541 01b6 84F84020 		strb	r2, [r4, #64]
 5542              	.L758:
 5543 01ba E26A     		ldr	r2, [r4, #44]
 5544 01bc 2749     		ldr	r1, .L786
 5545 01be 9162     		str	r1, [r2, #40]
 5546 01c0 E26A     		ldr	r2, [r4, #44]
 5547 01c2 2749     		ldr	r1, .L786+4
 5548 01c4 D162     		str	r1, [r2, #44]
 5549 01c6 E26A     		ldr	r2, [r4, #44]
 5550 01c8 2649     		ldr	r1, .L786+8
 5551 01ca 1163     		str	r1, [r2, #48]
 5552 01cc 2268     		ldr	r2, [r4]
 5553 01ce 3C32     		adds	r2, r2, #60
 5554 01d0 3146     		mov	r1, r6
 5555 01d2 E06A     		ldr	r0, [r4, #44]
 5556 01d4 FFF7FEFF 		bl	HAL_DMA_Start_IT
 5557 01d8 0028     		cmp	r0, #0
 5558 01da 39D1     		bne	.L772
 5559 01dc 2268     		ldr	r2, [r4]
 5560 01de D368     		ldr	r3, [r2, #12]
 5561 01e0 43F40063 		orr	r3, r3, #2048
ARM GAS  C:\Users\matve\AppData\Local\Temp\ccRkZNWM.s 			page 95


 5562 01e4 D360     		str	r3, [r2, #12]
 5563 01e6 49E7     		b	.L761
 5564              	.L759:
 5565 01e8 226B     		ldr	r2, [r4, #48]
 5566 01ea 1C49     		ldr	r1, .L786
 5567 01ec 9162     		str	r1, [r2, #40]
 5568 01ee 226B     		ldr	r2, [r4, #48]
 5569 01f0 1B49     		ldr	r1, .L786+4
 5570 01f2 D162     		str	r1, [r2, #44]
 5571 01f4 226B     		ldr	r2, [r4, #48]
 5572 01f6 1B49     		ldr	r1, .L786+8
 5573 01f8 1163     		str	r1, [r2, #48]
 5574 01fa 2268     		ldr	r2, [r4]
 5575 01fc 4032     		adds	r2, r2, #64
 5576 01fe 3146     		mov	r1, r6
 5577 0200 206B     		ldr	r0, [r4, #48]
 5578 0202 FFF7FEFF 		bl	HAL_DMA_Start_IT
 5579 0206 28BB     		cbnz	r0, .L773
 5580 0208 2268     		ldr	r2, [r4]
 5581 020a D368     		ldr	r3, [r2, #12]
 5582 020c 43F48053 		orr	r3, r3, #4096
 5583 0210 D360     		str	r3, [r2, #12]
 5584 0212 33E7     		b	.L761
 5585              	.L779:
 5586 0214 5A6C     		ldr	r2, [r3, #68]
 5587 0216 42F40042 		orr	r2, r2, #32768
 5588 021a 5A64     		str	r2, [r3, #68]
 5589 021c 38E7     		b	.L762
 5590              	.L763:
 5591 021e 9A68     		ldr	r2, [r3, #8]
 5592 0220 02F00702 		and	r2, r2, #7
 5593 0224 062A     		cmp	r2, #6
 5594 0226 17D0     		beq	.L774
 5595 0228 1A68     		ldr	r2, [r3]
 5596 022a 42F00102 		orr	r2, r2, #1
 5597 022e 1A60     		str	r2, [r3]
 5598 0230 0020     		movs	r0, #0
 5599 0232 02E0     		b	.L748
 5600              	.L765:
 5601 0234 0220     		movs	r0, #2
 5602 0236 00E0     		b	.L748
 5603              	.L766:
 5604 0238 0120     		movs	r0, #1
 5605              	.L748:
 5606 023a 70BD     		pop	{r4, r5, r6, pc}
 5607              	.L767:
 5608 023c 0120     		movs	r0, #1
 5609 023e FCE7     		b	.L748
 5610              	.L768:
 5611 0240 0120     		movs	r0, #1
 5612 0242 FAE7     		b	.L748
 5613              	.L769:
 5614 0244 0120     		movs	r0, #1
 5615 0246 F8E7     		b	.L748
 5616              	.L770:
 5617 0248 0120     		movs	r0, #1
 5618 024a F6E7     		b	.L748
ARM GAS  C:\Users\matve\AppData\Local\Temp\ccRkZNWM.s 			page 96


 5619              	.L771:
 5620 024c 0120     		movs	r0, #1
 5621 024e F4E7     		b	.L748
 5622              	.L772:
 5623 0250 0120     		movs	r0, #1
 5624 0252 F2E7     		b	.L748
 5625              	.L773:
 5626 0254 0120     		movs	r0, #1
 5627 0256 F0E7     		b	.L748
 5628              	.L774:
 5629 0258 0020     		movs	r0, #0
 5630 025a EEE7     		b	.L748
 5631              	.L787:
 5632              		.align	2
 5633              	.L786:
 5634 025c 00000000 		.word	TIM_DMADelayPulseCplt
 5635 0260 00000000 		.word	TIM_DMADelayPulseHalfCplt
 5636 0264 00000000 		.word	TIM_DMAError
 5637 0268 002C0140 		.word	1073818624
 5639              		.section	.text.HAL_TIM_PWM_Stop_DMA,"ax",%progbits
 5640              		.align	1
 5641              		.global	HAL_TIM_PWM_Stop_DMA
 5642              		.syntax unified
 5643              		.thumb
 5644              		.thumb_func
 5646              	HAL_TIM_PWM_Stop_DMA:
 5647              		@ args = 0, pretend = 0, frame = 0
 5648              		@ frame_needed = 0, uses_anonymous_args = 0
 5649 0000 38B5     		push	{r3, r4, r5, lr}
 5650 0002 0446     		mov	r4, r0
 5651 0004 0D46     		mov	r5, r1
 5652 0006 0C29     		cmp	r1, #12
 5653 0008 6CD8     		bhi	.L801
 5654 000a DFE801F0 		tbb	[pc, r1]
 5655              	.L791:
 5656 000e 07       		.byte	(.L794-.L791)/2
 5657 000f 6B       		.byte	(.L801-.L791)/2
 5658 0010 6B       		.byte	(.L801-.L791)/2
 5659 0011 6B       		.byte	(.L801-.L791)/2
 5660 0012 2E       		.byte	(.L793-.L791)/2
 5661 0013 6B       		.byte	(.L801-.L791)/2
 5662 0014 6B       		.byte	(.L801-.L791)/2
 5663 0015 6B       		.byte	(.L801-.L791)/2
 5664 0016 37       		.byte	(.L792-.L791)/2
 5665 0017 6B       		.byte	(.L801-.L791)/2
 5666 0018 6B       		.byte	(.L801-.L791)/2
 5667 0019 6B       		.byte	(.L801-.L791)/2
 5668 001a 40       		.byte	(.L790-.L791)/2
 5669 001b 00       		.p2align 1
 5670              	.L794:
 5671 001c 0268     		ldr	r2, [r0]
 5672 001e D368     		ldr	r3, [r2, #12]
 5673 0020 23F40073 		bic	r3, r3, #512
 5674 0024 D360     		str	r3, [r2, #12]
 5675 0026 406A     		ldr	r0, [r0, #36]
 5676 0028 FFF7FEFF 		bl	HAL_DMA_Abort_IT
 5677              	.L795:
ARM GAS  C:\Users\matve\AppData\Local\Temp\ccRkZNWM.s 			page 97


 5678 002c 0022     		movs	r2, #0
 5679 002e 2946     		mov	r1, r5
 5680 0030 2068     		ldr	r0, [r4]
 5681 0032 FFF7FEFF 		bl	TIM_CCxChannelCmd
 5682 0036 2368     		ldr	r3, [r4]
 5683 0038 2B4A     		ldr	r2, .L806
 5684 003a 9342     		cmp	r3, r2
 5685 003c 30D0     		beq	.L803
 5686              	.L796:
 5687 003e 2368     		ldr	r3, [r4]
 5688 0040 196A     		ldr	r1, [r3, #32]
 5689 0042 41F21112 		movw	r2, #4369
 5690 0046 1142     		tst	r1, r2
 5691 0048 08D1     		bne	.L797
 5692 004a 196A     		ldr	r1, [r3, #32]
 5693 004c 40F24442 		movw	r2, #1092
 5694 0050 1142     		tst	r1, r2
 5695 0052 03D1     		bne	.L797
 5696 0054 1A68     		ldr	r2, [r3]
 5697 0056 22F00102 		bic	r2, r2, #1
 5698 005a 1A60     		str	r2, [r3]
 5699              	.L797:
 5700 005c 002D     		cmp	r5, #0
 5701 005e 2ED1     		bne	.L798
 5702 0060 0123     		movs	r3, #1
 5703 0062 84F83E30 		strb	r3, [r4, #62]
 5704 0066 0020     		movs	r0, #0
 5705 0068 3DE0     		b	.L789
 5706              	.L793:
 5707 006a 0268     		ldr	r2, [r0]
 5708 006c D368     		ldr	r3, [r2, #12]
 5709 006e 23F48063 		bic	r3, r3, #1024
 5710 0072 D360     		str	r3, [r2, #12]
 5711 0074 806A     		ldr	r0, [r0, #40]
 5712 0076 FFF7FEFF 		bl	HAL_DMA_Abort_IT
 5713 007a D7E7     		b	.L795
 5714              	.L792:
 5715 007c 0268     		ldr	r2, [r0]
 5716 007e D368     		ldr	r3, [r2, #12]
 5717 0080 23F40063 		bic	r3, r3, #2048
 5718 0084 D360     		str	r3, [r2, #12]
 5719 0086 C06A     		ldr	r0, [r0, #44]
 5720 0088 FFF7FEFF 		bl	HAL_DMA_Abort_IT
 5721 008c CEE7     		b	.L795
 5722              	.L790:
 5723 008e 0268     		ldr	r2, [r0]
 5724 0090 D368     		ldr	r3, [r2, #12]
 5725 0092 23F48053 		bic	r3, r3, #4096
 5726 0096 D360     		str	r3, [r2, #12]
 5727 0098 006B     		ldr	r0, [r0, #48]
 5728 009a FFF7FEFF 		bl	HAL_DMA_Abort_IT
 5729 009e C5E7     		b	.L795
 5730              	.L803:
 5731 00a0 196A     		ldr	r1, [r3, #32]
 5732 00a2 41F21112 		movw	r2, #4369
 5733 00a6 1142     		tst	r1, r2
 5734 00a8 C9D1     		bne	.L796
ARM GAS  C:\Users\matve\AppData\Local\Temp\ccRkZNWM.s 			page 98


 5735 00aa 196A     		ldr	r1, [r3, #32]
 5736 00ac 40F24442 		movw	r2, #1092
 5737 00b0 1142     		tst	r1, r2
 5738 00b2 C4D1     		bne	.L796
 5739 00b4 5A6C     		ldr	r2, [r3, #68]
 5740 00b6 22F40042 		bic	r2, r2, #32768
 5741 00ba 5A64     		str	r2, [r3, #68]
 5742 00bc BFE7     		b	.L796
 5743              	.L798:
 5744 00be 042D     		cmp	r5, #4
 5745 00c0 06D0     		beq	.L804
 5746 00c2 082D     		cmp	r5, #8
 5747 00c4 09D0     		beq	.L805
 5748 00c6 0123     		movs	r3, #1
 5749 00c8 84F84130 		strb	r3, [r4, #65]
 5750 00cc 0020     		movs	r0, #0
 5751 00ce 0AE0     		b	.L789
 5752              	.L804:
 5753 00d0 0123     		movs	r3, #1
 5754 00d2 84F83F30 		strb	r3, [r4, #63]
 5755 00d6 0020     		movs	r0, #0
 5756 00d8 05E0     		b	.L789
 5757              	.L805:
 5758 00da 0123     		movs	r3, #1
 5759 00dc 84F84030 		strb	r3, [r4, #64]
 5760 00e0 0020     		movs	r0, #0
 5761 00e2 00E0     		b	.L789
 5762              	.L801:
 5763 00e4 0120     		movs	r0, #1
 5764              	.L789:
 5765 00e6 38BD     		pop	{r3, r4, r5, pc}
 5766              	.L807:
 5767              		.align	2
 5768              	.L806:
 5769 00e8 002C0140 		.word	1073818624
 5771              		.section	.text.HAL_TIM_IC_Start,"ax",%progbits
 5772              		.align	1
 5773              		.global	HAL_TIM_IC_Start
 5774              		.syntax unified
 5775              		.thumb
 5776              		.thumb_func
 5778              	HAL_TIM_IC_Start:
 5779              		@ args = 0, pretend = 0, frame = 0
 5780              		@ frame_needed = 0, uses_anonymous_args = 0
 5781 0000 10B5     		push	{r4, lr}
 5782 0002 0446     		mov	r4, r0
 5783 0004 0B46     		mov	r3, r1
 5784 0006 61BB     		cbnz	r1, .L809
 5785 0008 90F83E00 		ldrb	r0, [r0, #62]	@ zero_extendqisi2
 5786 000c C0B2     		uxtb	r0, r0
 5787              	.L810:
 5788 000e 002B     		cmp	r3, #0
 5789 0010 37D1     		bne	.L813
 5790 0012 94F84220 		ldrb	r2, [r4, #66]	@ zero_extendqisi2
 5791 0016 D2B2     		uxtb	r2, r2
 5792              	.L814:
 5793 0018 0128     		cmp	r0, #1
ARM GAS  C:\Users\matve\AppData\Local\Temp\ccRkZNWM.s 			page 99


 5794 001a 6CD1     		bne	.L827
 5795 001c 012A     		cmp	r2, #1
 5796 001e 6BD1     		bne	.L817
 5797 0020 002B     		cmp	r3, #0
 5798 0022 3ED1     		bne	.L818
 5799 0024 0222     		movs	r2, #2
 5800 0026 84F83E20 		strb	r2, [r4, #62]
 5801 002a 84F84220 		strb	r2, [r4, #66]
 5802              	.L819:
 5803 002e 0122     		movs	r2, #1
 5804 0030 1946     		mov	r1, r3
 5805 0032 2068     		ldr	r0, [r4]
 5806 0034 FFF7FEFF 		bl	TIM_CCxChannelCmd
 5807 0038 2368     		ldr	r3, [r4]
 5808 003a 314A     		ldr	r2, .L838
 5809 003c 9342     		cmp	r3, r2
 5810 003e 4FD0     		beq	.L825
 5811 0040 B3F1804F 		cmp	r3, #1073741824
 5812 0044 4CD0     		beq	.L825
 5813 0046 A2F59432 		sub	r2, r2, #75776
 5814 004a 9342     		cmp	r3, r2
 5815 004c 48D0     		beq	.L825
 5816 004e 02F58062 		add	r2, r2, #1024
 5817 0052 9342     		cmp	r3, r2
 5818 0054 44D0     		beq	.L825
 5819 0056 1A68     		ldr	r2, [r3]
 5820 0058 42F00102 		orr	r2, r2, #1
 5821 005c 1A60     		str	r2, [r3]
 5822 005e 0020     		movs	r0, #0
 5823 0060 4AE0     		b	.L817
 5824              	.L809:
 5825 0062 0429     		cmp	r1, #4
 5826 0064 05D0     		beq	.L830
 5827 0066 0829     		cmp	r1, #8
 5828 0068 07D0     		beq	.L831
 5829 006a 90F84100 		ldrb	r0, [r0, #65]	@ zero_extendqisi2
 5830 006e C0B2     		uxtb	r0, r0
 5831 0070 CDE7     		b	.L810
 5832              	.L830:
 5833 0072 90F83F00 		ldrb	r0, [r0, #63]	@ zero_extendqisi2
 5834 0076 C0B2     		uxtb	r0, r0
 5835 0078 C9E7     		b	.L810
 5836              	.L831:
 5837 007a 90F84000 		ldrb	r0, [r0, #64]	@ zero_extendqisi2
 5838 007e C0B2     		uxtb	r0, r0
 5839 0080 C5E7     		b	.L810
 5840              	.L813:
 5841 0082 042B     		cmp	r3, #4
 5842 0084 05D0     		beq	.L832
 5843 0086 082B     		cmp	r3, #8
 5844 0088 07D0     		beq	.L833
 5845 008a 94F84520 		ldrb	r2, [r4, #69]	@ zero_extendqisi2
 5846 008e D2B2     		uxtb	r2, r2
 5847 0090 C2E7     		b	.L814
 5848              	.L832:
 5849 0092 94F84320 		ldrb	r2, [r4, #67]	@ zero_extendqisi2
 5850 0096 D2B2     		uxtb	r2, r2
ARM GAS  C:\Users\matve\AppData\Local\Temp\ccRkZNWM.s 			page 100


 5851 0098 BEE7     		b	.L814
 5852              	.L833:
 5853 009a 94F84420 		ldrb	r2, [r4, #68]	@ zero_extendqisi2
 5854 009e D2B2     		uxtb	r2, r2
 5855 00a0 BAE7     		b	.L814
 5856              	.L818:
 5857 00a2 042B     		cmp	r3, #4
 5858 00a4 0CD0     		beq	.L834
 5859 00a6 082B     		cmp	r3, #8
 5860 00a8 0ED0     		beq	.L835
 5861 00aa 0222     		movs	r2, #2
 5862 00ac 84F84120 		strb	r2, [r4, #65]
 5863              	.L821:
 5864 00b0 042B     		cmp	r3, #4
 5865 00b2 0DD0     		beq	.L836
 5866 00b4 082B     		cmp	r3, #8
 5867 00b6 0FD0     		beq	.L837
 5868 00b8 0222     		movs	r2, #2
 5869 00ba 84F84520 		strb	r2, [r4, #69]
 5870 00be B6E7     		b	.L819
 5871              	.L834:
 5872 00c0 0222     		movs	r2, #2
 5873 00c2 84F83F20 		strb	r2, [r4, #63]
 5874 00c6 F3E7     		b	.L821
 5875              	.L835:
 5876 00c8 0222     		movs	r2, #2
 5877 00ca 84F84020 		strb	r2, [r4, #64]
 5878 00ce EFE7     		b	.L821
 5879              	.L836:
 5880 00d0 0222     		movs	r2, #2
 5881 00d2 84F84320 		strb	r2, [r4, #67]
 5882 00d6 AAE7     		b	.L819
 5883              	.L837:
 5884 00d8 0222     		movs	r2, #2
 5885 00da 84F84420 		strb	r2, [r4, #68]
 5886 00de A6E7     		b	.L819
 5887              	.L825:
 5888 00e0 9A68     		ldr	r2, [r3, #8]
 5889 00e2 02F00702 		and	r2, r2, #7
 5890 00e6 062A     		cmp	r2, #6
 5891 00e8 07D0     		beq	.L828
 5892 00ea 1A68     		ldr	r2, [r3]
 5893 00ec 42F00102 		orr	r2, r2, #1
 5894 00f0 1A60     		str	r2, [r3]
 5895 00f2 0020     		movs	r0, #0
 5896 00f4 00E0     		b	.L817
 5897              	.L827:
 5898 00f6 0120     		movs	r0, #1
 5899              	.L817:
 5900 00f8 10BD     		pop	{r4, pc}
 5901              	.L828:
 5902 00fa 0020     		movs	r0, #0
 5903 00fc FCE7     		b	.L817
 5904              	.L839:
 5905 00fe 00BF     		.align	2
 5906              	.L838:
 5907 0100 002C0140 		.word	1073818624
ARM GAS  C:\Users\matve\AppData\Local\Temp\ccRkZNWM.s 			page 101


 5909              		.section	.text.HAL_TIM_IC_Stop,"ax",%progbits
 5910              		.align	1
 5911              		.global	HAL_TIM_IC_Stop
 5912              		.syntax unified
 5913              		.thumb
 5914              		.thumb_func
 5916              	HAL_TIM_IC_Stop:
 5917              		@ args = 0, pretend = 0, frame = 0
 5918              		@ frame_needed = 0, uses_anonymous_args = 0
 5919 0000 38B5     		push	{r3, r4, r5, lr}
 5920 0002 0446     		mov	r4, r0
 5921 0004 0D46     		mov	r5, r1
 5922 0006 0022     		movs	r2, #0
 5923 0008 0068     		ldr	r0, [r0]
 5924 000a FFF7FEFF 		bl	TIM_CCxChannelCmd
 5925 000e 2368     		ldr	r3, [r4]
 5926 0010 196A     		ldr	r1, [r3, #32]
 5927 0012 41F21112 		movw	r2, #4369
 5928 0016 1142     		tst	r1, r2
 5929 0018 08D1     		bne	.L841
 5930 001a 196A     		ldr	r1, [r3, #32]
 5931 001c 40F24442 		movw	r2, #1092
 5932 0020 1142     		tst	r1, r2
 5933 0022 03D1     		bne	.L841
 5934 0024 1A68     		ldr	r2, [r3]
 5935 0026 22F00102 		bic	r2, r2, #1
 5936 002a 1A60     		str	r2, [r3]
 5937              	.L841:
 5938 002c 35B9     		cbnz	r5, .L842
 5939 002e 0123     		movs	r3, #1
 5940 0030 84F83E30 		strb	r3, [r4, #62]
 5941 0034 84F84230 		strb	r3, [r4, #66]
 5942              	.L843:
 5943 0038 0020     		movs	r0, #0
 5944 003a 38BD     		pop	{r3, r4, r5, pc}
 5945              	.L842:
 5946 003c 042D     		cmp	r5, #4
 5947 003e 0CD0     		beq	.L850
 5948 0040 082D     		cmp	r5, #8
 5949 0042 0ED0     		beq	.L851
 5950 0044 0123     		movs	r3, #1
 5951 0046 84F84130 		strb	r3, [r4, #65]
 5952              	.L845:
 5953 004a 042D     		cmp	r5, #4
 5954 004c 0DD0     		beq	.L852
 5955 004e 082D     		cmp	r5, #8
 5956 0050 0FD0     		beq	.L853
 5957 0052 0123     		movs	r3, #1
 5958 0054 84F84530 		strb	r3, [r4, #69]
 5959 0058 EEE7     		b	.L843
 5960              	.L850:
 5961 005a 0123     		movs	r3, #1
 5962 005c 84F83F30 		strb	r3, [r4, #63]
 5963 0060 F3E7     		b	.L845
 5964              	.L851:
 5965 0062 0123     		movs	r3, #1
 5966 0064 84F84030 		strb	r3, [r4, #64]
ARM GAS  C:\Users\matve\AppData\Local\Temp\ccRkZNWM.s 			page 102


 5967 0068 EFE7     		b	.L845
 5968              	.L852:
 5969 006a 0123     		movs	r3, #1
 5970 006c 84F84330 		strb	r3, [r4, #67]
 5971 0070 E2E7     		b	.L843
 5972              	.L853:
 5973 0072 0123     		movs	r3, #1
 5974 0074 84F84430 		strb	r3, [r4, #68]
 5975 0078 DEE7     		b	.L843
 5977              		.section	.text.HAL_TIM_IC_Start_IT,"ax",%progbits
 5978              		.align	1
 5979              		.global	HAL_TIM_IC_Start_IT
 5980              		.syntax unified
 5981              		.thumb
 5982              		.thumb_func
 5984              	HAL_TIM_IC_Start_IT:
 5985              		@ args = 0, pretend = 0, frame = 0
 5986              		@ frame_needed = 0, uses_anonymous_args = 0
 5987 0000 10B5     		push	{r4, lr}
 5988 0002 0446     		mov	r4, r0
 5989 0004 0B46     		mov	r3, r1
 5990 0006 F1B9     		cbnz	r1, .L855
 5991 0008 90F83E00 		ldrb	r0, [r0, #62]	@ zero_extendqisi2
 5992 000c C0B2     		uxtb	r0, r0
 5993              	.L856:
 5994 000e 53BB     		cbnz	r3, .L859
 5995 0010 94F84220 		ldrb	r2, [r4, #66]	@ zero_extendqisi2
 5996 0014 D2B2     		uxtb	r2, r2
 5997              	.L860:
 5998 0016 0128     		cmp	r0, #1
 5999 0018 40F08E80 		bne	.L879
 6000 001c 012A     		cmp	r2, #1
 6001 001e 40F08C80 		bne	.L863
 6002 0022 83BB     		cbnz	r3, .L864
 6003 0024 0221     		movs	r1, #2
 6004 0026 84F83E10 		strb	r1, [r4, #62]
 6005 002a 84F84210 		strb	r1, [r4, #66]
 6006              	.L865:
 6007 002e 0C2B     		cmp	r3, #12
 6008 0030 00F28480 		bhi	.L880
 6009 0034 DFE803F0 		tbb	[pc, r3]
 6010              	.L874:
 6011 0038 69       		.byte	(.L875-.L874)/2
 6012 0039 82       		.byte	(.L880-.L874)/2
 6013 003a 82       		.byte	(.L880-.L874)/2
 6014 003b 82       		.byte	(.L880-.L874)/2
 6015 003c 41       		.byte	(.L870-.L874)/2
 6016 003d 82       		.byte	(.L880-.L874)/2
 6017 003e 82       		.byte	(.L880-.L874)/2
 6018 003f 82       		.byte	(.L880-.L874)/2
 6019 0040 63       		.byte	(.L872-.L874)/2
 6020 0041 82       		.byte	(.L880-.L874)/2
 6021 0042 82       		.byte	(.L880-.L874)/2
 6022 0043 82       		.byte	(.L880-.L874)/2
 6023 0044 6F       		.byte	(.L873-.L874)/2
 6024 0045 00       		.p2align 1
 6025              	.L855:
ARM GAS  C:\Users\matve\AppData\Local\Temp\ccRkZNWM.s 			page 103


 6026 0046 0429     		cmp	r1, #4
 6027 0048 05D0     		beq	.L885
 6028 004a 0829     		cmp	r1, #8
 6029 004c 07D0     		beq	.L886
 6030 004e 90F84100 		ldrb	r0, [r0, #65]	@ zero_extendqisi2
 6031 0052 C0B2     		uxtb	r0, r0
 6032 0054 DBE7     		b	.L856
 6033              	.L885:
 6034 0056 90F83F00 		ldrb	r0, [r0, #63]	@ zero_extendqisi2
 6035 005a C0B2     		uxtb	r0, r0
 6036 005c D7E7     		b	.L856
 6037              	.L886:
 6038 005e 90F84000 		ldrb	r0, [r0, #64]	@ zero_extendqisi2
 6039 0062 C0B2     		uxtb	r0, r0
 6040 0064 D3E7     		b	.L856
 6041              	.L859:
 6042 0066 042B     		cmp	r3, #4
 6043 0068 05D0     		beq	.L887
 6044 006a 082B     		cmp	r3, #8
 6045 006c 07D0     		beq	.L888
 6046 006e 94F84520 		ldrb	r2, [r4, #69]	@ zero_extendqisi2
 6047 0072 D2B2     		uxtb	r2, r2
 6048 0074 CFE7     		b	.L860
 6049              	.L887:
 6050 0076 94F84320 		ldrb	r2, [r4, #67]	@ zero_extendqisi2
 6051 007a D2B2     		uxtb	r2, r2
 6052 007c CBE7     		b	.L860
 6053              	.L888:
 6054 007e 94F84420 		ldrb	r2, [r4, #68]	@ zero_extendqisi2
 6055 0082 D2B2     		uxtb	r2, r2
 6056 0084 C7E7     		b	.L860
 6057              	.L864:
 6058 0086 042B     		cmp	r3, #4
 6059 0088 0CD0     		beq	.L889
 6060 008a 082B     		cmp	r3, #8
 6061 008c 0ED0     		beq	.L890
 6062 008e 0221     		movs	r1, #2
 6063 0090 84F84110 		strb	r1, [r4, #65]
 6064              	.L867:
 6065 0094 042B     		cmp	r3, #4
 6066 0096 0DD0     		beq	.L891
 6067 0098 082B     		cmp	r3, #8
 6068 009a 2DD0     		beq	.L892
 6069 009c 0221     		movs	r1, #2
 6070 009e 84F84510 		strb	r1, [r4, #69]
 6071 00a2 C4E7     		b	.L865
 6072              	.L889:
 6073 00a4 0221     		movs	r1, #2
 6074 00a6 84F83F10 		strb	r1, [r4, #63]
 6075 00aa F3E7     		b	.L867
 6076              	.L890:
 6077 00ac 0221     		movs	r1, #2
 6078 00ae 84F84010 		strb	r1, [r4, #64]
 6079 00b2 EFE7     		b	.L867
 6080              	.L891:
 6081 00b4 0222     		movs	r2, #2
 6082 00b6 84F84320 		strb	r2, [r4, #67]
ARM GAS  C:\Users\matve\AppData\Local\Temp\ccRkZNWM.s 			page 104


 6083              	.L870:
 6084 00ba 2168     		ldr	r1, [r4]
 6085 00bc CA68     		ldr	r2, [r1, #12]
 6086 00be 42F00402 		orr	r2, r2, #4
 6087 00c2 CA60     		str	r2, [r1, #12]
 6088              	.L876:
 6089 00c4 0122     		movs	r2, #1
 6090 00c6 1946     		mov	r1, r3
 6091 00c8 2068     		ldr	r0, [r4]
 6092 00ca FFF7FEFF 		bl	TIM_CCxChannelCmd
 6093 00ce 2368     		ldr	r3, [r4]
 6094 00d0 1C4A     		ldr	r2, .L893
 6095 00d2 9342     		cmp	r3, r2
 6096 00d4 25D0     		beq	.L877
 6097 00d6 B3F1804F 		cmp	r3, #1073741824
 6098 00da 22D0     		beq	.L877
 6099 00dc A2F59432 		sub	r2, r2, #75776
 6100 00e0 9342     		cmp	r3, r2
 6101 00e2 1ED0     		beq	.L877
 6102 00e4 02F58062 		add	r2, r2, #1024
 6103 00e8 9342     		cmp	r3, r2
 6104 00ea 1AD0     		beq	.L877
 6105 00ec 1A68     		ldr	r2, [r3]
 6106 00ee 42F00102 		orr	r2, r2, #1
 6107 00f2 1A60     		str	r2, [r3]
 6108 00f4 0020     		movs	r0, #0
 6109 00f6 20E0     		b	.L863
 6110              	.L892:
 6111 00f8 0222     		movs	r2, #2
 6112 00fa 84F84420 		strb	r2, [r4, #68]
 6113              	.L872:
 6114 00fe 2168     		ldr	r1, [r4]
 6115 0100 CA68     		ldr	r2, [r1, #12]
 6116 0102 42F00802 		orr	r2, r2, #8
 6117 0106 CA60     		str	r2, [r1, #12]
 6118 0108 DCE7     		b	.L876
 6119              	.L875:
 6120 010a 2168     		ldr	r1, [r4]
 6121 010c CA68     		ldr	r2, [r1, #12]
 6122 010e 42F00202 		orr	r2, r2, #2
 6123 0112 CA60     		str	r2, [r1, #12]
 6124 0114 D6E7     		b	.L876
 6125              	.L873:
 6126 0116 2168     		ldr	r1, [r4]
 6127 0118 CA68     		ldr	r2, [r1, #12]
 6128 011a 42F01002 		orr	r2, r2, #16
 6129 011e CA60     		str	r2, [r1, #12]
 6130 0120 D0E7     		b	.L876
 6131              	.L877:
 6132 0122 9A68     		ldr	r2, [r3, #8]
 6133 0124 02F00702 		and	r2, r2, #7
 6134 0128 062A     		cmp	r2, #6
 6135 012a 09D0     		beq	.L881
 6136 012c 1A68     		ldr	r2, [r3]
 6137 012e 42F00102 		orr	r2, r2, #1
 6138 0132 1A60     		str	r2, [r3]
 6139 0134 0020     		movs	r0, #0
ARM GAS  C:\Users\matve\AppData\Local\Temp\ccRkZNWM.s 			page 105


 6140 0136 00E0     		b	.L863
 6141              	.L879:
 6142 0138 0120     		movs	r0, #1
 6143              	.L863:
 6144 013a 10BD     		pop	{r4, pc}
 6145              	.L880:
 6146 013c 1046     		mov	r0, r2
 6147 013e FCE7     		b	.L863
 6148              	.L881:
 6149 0140 0020     		movs	r0, #0
 6150 0142 FAE7     		b	.L863
 6151              	.L894:
 6152              		.align	2
 6153              	.L893:
 6154 0144 002C0140 		.word	1073818624
 6156              		.section	.text.HAL_TIM_IC_Stop_IT,"ax",%progbits
 6157              		.align	1
 6158              		.global	HAL_TIM_IC_Stop_IT
 6159              		.syntax unified
 6160              		.thumb
 6161              		.thumb_func
 6163              	HAL_TIM_IC_Stop_IT:
 6164              		@ args = 0, pretend = 0, frame = 0
 6165              		@ frame_needed = 0, uses_anonymous_args = 0
 6166 0000 38B5     		push	{r3, r4, r5, lr}
 6167 0002 0546     		mov	r5, r0
 6168 0004 0C46     		mov	r4, r1
 6169 0006 0C29     		cmp	r1, #12
 6170 0008 5DD8     		bhi	.L910
 6171 000a DFE801F0 		tbb	[pc, r1]
 6172              	.L898:
 6173 000e 07       		.byte	(.L901-.L898)/2
 6174 000f 5C       		.byte	(.L910-.L898)/2
 6175 0010 5C       		.byte	(.L910-.L898)/2
 6176 0011 5C       		.byte	(.L910-.L898)/2
 6177 0012 28       		.byte	(.L900-.L898)/2
 6178 0013 5C       		.byte	(.L910-.L898)/2
 6179 0014 5C       		.byte	(.L910-.L898)/2
 6180 0015 5C       		.byte	(.L910-.L898)/2
 6181 0016 2E       		.byte	(.L899-.L898)/2
 6182 0017 5C       		.byte	(.L910-.L898)/2
 6183 0018 5C       		.byte	(.L910-.L898)/2
 6184 0019 5C       		.byte	(.L910-.L898)/2
 6185 001a 34       		.byte	(.L897-.L898)/2
 6186 001b 00       		.p2align 1
 6187              	.L901:
 6188 001c 0268     		ldr	r2, [r0]
 6189 001e D368     		ldr	r3, [r2, #12]
 6190 0020 23F00203 		bic	r3, r3, #2
 6191 0024 D360     		str	r3, [r2, #12]
 6192              	.L902:
 6193 0026 0022     		movs	r2, #0
 6194 0028 2146     		mov	r1, r4
 6195 002a 2868     		ldr	r0, [r5]
 6196 002c FFF7FEFF 		bl	TIM_CCxChannelCmd
 6197 0030 2B68     		ldr	r3, [r5]
 6198 0032 196A     		ldr	r1, [r3, #32]
ARM GAS  C:\Users\matve\AppData\Local\Temp\ccRkZNWM.s 			page 106


 6199 0034 41F21112 		movw	r2, #4369
 6200 0038 1142     		tst	r1, r2
 6201 003a 08D1     		bne	.L903
 6202 003c 196A     		ldr	r1, [r3, #32]
 6203 003e 40F24442 		movw	r2, #1092
 6204 0042 1142     		tst	r1, r2
 6205 0044 03D1     		bne	.L903
 6206 0046 1A68     		ldr	r2, [r3]
 6207 0048 22F00102 		bic	r2, r2, #1
 6208 004c 1A60     		str	r2, [r3]
 6209              	.L903:
 6210 004e C4B9     		cbnz	r4, .L904
 6211 0050 0123     		movs	r3, #1
 6212 0052 85F83E30 		strb	r3, [r5, #62]
 6213 0056 85F84230 		strb	r3, [r5, #66]
 6214 005a 0020     		movs	r0, #0
 6215 005c 34E0     		b	.L896
 6216              	.L900:
 6217 005e 0268     		ldr	r2, [r0]
 6218 0060 D368     		ldr	r3, [r2, #12]
 6219 0062 23F00403 		bic	r3, r3, #4
 6220 0066 D360     		str	r3, [r2, #12]
 6221 0068 DDE7     		b	.L902
 6222              	.L899:
 6223 006a 0268     		ldr	r2, [r0]
 6224 006c D368     		ldr	r3, [r2, #12]
 6225 006e 23F00803 		bic	r3, r3, #8
 6226 0072 D360     		str	r3, [r2, #12]
 6227 0074 D7E7     		b	.L902
 6228              	.L897:
 6229 0076 0268     		ldr	r2, [r0]
 6230 0078 D368     		ldr	r3, [r2, #12]
 6231 007a 23F01003 		bic	r3, r3, #16
 6232 007e D360     		str	r3, [r2, #12]
 6233 0080 D1E7     		b	.L902
 6234              	.L904:
 6235 0082 042C     		cmp	r4, #4
 6236 0084 0DD0     		beq	.L912
 6237 0086 082C     		cmp	r4, #8
 6238 0088 0FD0     		beq	.L913
 6239 008a 0123     		movs	r3, #1
 6240 008c 85F84130 		strb	r3, [r5, #65]
 6241              	.L906:
 6242 0090 042C     		cmp	r4, #4
 6243 0092 0ED0     		beq	.L914
 6244 0094 082C     		cmp	r4, #8
 6245 0096 11D0     		beq	.L915
 6246 0098 0123     		movs	r3, #1
 6247 009a 85F84530 		strb	r3, [r5, #69]
 6248 009e 0020     		movs	r0, #0
 6249 00a0 12E0     		b	.L896
 6250              	.L912:
 6251 00a2 0123     		movs	r3, #1
 6252 00a4 85F83F30 		strb	r3, [r5, #63]
 6253 00a8 F2E7     		b	.L906
 6254              	.L913:
 6255 00aa 0123     		movs	r3, #1
ARM GAS  C:\Users\matve\AppData\Local\Temp\ccRkZNWM.s 			page 107


 6256 00ac 85F84030 		strb	r3, [r5, #64]
 6257 00b0 EEE7     		b	.L906
 6258              	.L914:
 6259 00b2 0123     		movs	r3, #1
 6260 00b4 85F84330 		strb	r3, [r5, #67]
 6261 00b8 0020     		movs	r0, #0
 6262 00ba 05E0     		b	.L896
 6263              	.L915:
 6264 00bc 0123     		movs	r3, #1
 6265 00be 85F84430 		strb	r3, [r5, #68]
 6266 00c2 0020     		movs	r0, #0
 6267 00c4 00E0     		b	.L896
 6268              	.L910:
 6269 00c6 0120     		movs	r0, #1
 6270              	.L896:
 6271 00c8 38BD     		pop	{r3, r4, r5, pc}
 6273              		.section	.text.HAL_TIM_IC_Start_DMA,"ax",%progbits
 6274              		.align	1
 6275              		.global	HAL_TIM_IC_Start_DMA
 6276              		.syntax unified
 6277              		.thumb
 6278              		.thumb_func
 6280              	HAL_TIM_IC_Start_DMA:
 6281              		@ args = 0, pretend = 0, frame = 0
 6282              		@ frame_needed = 0, uses_anonymous_args = 0
 6283 0000 2DE9F041 		push	{r4, r5, r6, r7, r8, lr}
 6284 0004 0446     		mov	r4, r0
 6285 0006 1646     		mov	r6, r2
 6286 0008 1F46     		mov	r7, r3
 6287 000a 0D46     		mov	r5, r1
 6288 000c 99BB     		cbnz	r1, .L917
 6289 000e 90F83E10 		ldrb	r1, [r0, #62]	@ zero_extendqisi2
 6290 0012 C8B2     		uxtb	r0, r1
 6291              	.L918:
 6292 0014 002D     		cmp	r5, #0
 6293 0016 3ED1     		bne	.L921
 6294 0018 94F84280 		ldrb	r8, [r4, #66]	@ zero_extendqisi2
 6295 001c 5FFA88F8 		uxtb	r8, r8
 6296              	.L922:
 6297 0020 0228     		cmp	r0, #2
 6298 0022 00F0EF80 		beq	.L925
 6299 0026 B8F1020F 		cmp	r8, #2
 6300 002a 00F0E880 		beq	.L941
 6301 002e 0128     		cmp	r0, #1
 6302 0030 40F0E780 		bne	.L942
 6303 0034 B8F1010F 		cmp	r8, #1
 6304 0038 40F0E480 		bne	.L925
 6305 003c 002E     		cmp	r6, #0
 6306 003e 00F0E380 		beq	.L943
 6307 0042 002F     		cmp	r7, #0
 6308 0044 00F0E280 		beq	.L944
 6309 0048 002D     		cmp	r5, #0
 6310 004a 37D1     		bne	.L926
 6311 004c 0223     		movs	r3, #2
 6312 004e 84F83E30 		strb	r3, [r4, #62]
 6313 0052 84F84230 		strb	r3, [r4, #66]
 6314              	.L927:
ARM GAS  C:\Users\matve\AppData\Local\Temp\ccRkZNWM.s 			page 108


 6315 0056 0122     		movs	r2, #1
 6316 0058 2946     		mov	r1, r5
 6317 005a 2068     		ldr	r0, [r4]
 6318 005c FFF7FEFF 		bl	TIM_CCxChannelCmd
 6319 0060 0C2D     		cmp	r5, #12
 6320 0062 62D8     		bhi	.L933
 6321 0064 DFE805F0 		tbb	[pc, r5]
 6322              	.L935:
 6323 0068 49       		.byte	(.L938-.L935)/2
 6324 0069 61       		.byte	(.L933-.L935)/2
 6325 006a 61       		.byte	(.L933-.L935)/2
 6326 006b 61       		.byte	(.L933-.L935)/2
 6327 006c 76       		.byte	(.L937-.L935)/2
 6328 006d 61       		.byte	(.L933-.L935)/2
 6329 006e 61       		.byte	(.L933-.L935)/2
 6330 006f 61       		.byte	(.L933-.L935)/2
 6331 0070 8F       		.byte	(.L936-.L935)/2
 6332 0071 61       		.byte	(.L933-.L935)/2
 6333 0072 61       		.byte	(.L933-.L935)/2
 6334 0073 61       		.byte	(.L933-.L935)/2
 6335 0074 A8       		.byte	(.L934-.L935)/2
 6336 0075 00       		.p2align 1
 6337              	.L917:
 6338 0076 0429     		cmp	r1, #4
 6339 0078 05D0     		beq	.L952
 6340 007a 0829     		cmp	r1, #8
 6341 007c 07D0     		beq	.L953
 6342 007e 90F84110 		ldrb	r1, [r0, #65]	@ zero_extendqisi2
 6343 0082 C8B2     		uxtb	r0, r1
 6344 0084 C6E7     		b	.L918
 6345              	.L952:
 6346 0086 90F83F10 		ldrb	r1, [r0, #63]	@ zero_extendqisi2
 6347 008a C8B2     		uxtb	r0, r1
 6348 008c C2E7     		b	.L918
 6349              	.L953:
 6350 008e 90F84000 		ldrb	r0, [r0, #64]	@ zero_extendqisi2
 6351 0092 C0B2     		uxtb	r0, r0
 6352 0094 BEE7     		b	.L918
 6353              	.L921:
 6354 0096 042D     		cmp	r5, #4
 6355 0098 06D0     		beq	.L954
 6356 009a 082D     		cmp	r5, #8
 6357 009c 09D0     		beq	.L955
 6358 009e 94F84580 		ldrb	r8, [r4, #69]	@ zero_extendqisi2
 6359 00a2 5FFA88F8 		uxtb	r8, r8
 6360 00a6 BBE7     		b	.L922
 6361              	.L954:
 6362 00a8 94F84380 		ldrb	r8, [r4, #67]	@ zero_extendqisi2
 6363 00ac 5FFA88F8 		uxtb	r8, r8
 6364 00b0 B6E7     		b	.L922
 6365              	.L955:
 6366 00b2 94F84480 		ldrb	r8, [r4, #68]	@ zero_extendqisi2
 6367 00b6 5FFA88F8 		uxtb	r8, r8
 6368 00ba B1E7     		b	.L922
 6369              	.L926:
 6370 00bc 042D     		cmp	r5, #4
 6371 00be 0CD0     		beq	.L956
ARM GAS  C:\Users\matve\AppData\Local\Temp\ccRkZNWM.s 			page 109


 6372 00c0 082D     		cmp	r5, #8
 6373 00c2 0ED0     		beq	.L957
 6374 00c4 0223     		movs	r3, #2
 6375 00c6 84F84130 		strb	r3, [r4, #65]
 6376              	.L929:
 6377 00ca 042D     		cmp	r5, #4
 6378 00cc 0DD0     		beq	.L958
 6379 00ce 082D     		cmp	r5, #8
 6380 00d0 0FD0     		beq	.L959
 6381 00d2 0223     		movs	r3, #2
 6382 00d4 84F84530 		strb	r3, [r4, #69]
 6383 00d8 BDE7     		b	.L927
 6384              	.L956:
 6385 00da 0223     		movs	r3, #2
 6386 00dc 84F83F30 		strb	r3, [r4, #63]
 6387 00e0 F3E7     		b	.L929
 6388              	.L957:
 6389 00e2 0223     		movs	r3, #2
 6390 00e4 84F84030 		strb	r3, [r4, #64]
 6391 00e8 EFE7     		b	.L929
 6392              	.L958:
 6393 00ea 0223     		movs	r3, #2
 6394 00ec 84F84330 		strb	r3, [r4, #67]
 6395 00f0 B1E7     		b	.L927
 6396              	.L959:
 6397 00f2 0223     		movs	r3, #2
 6398 00f4 84F84430 		strb	r3, [r4, #68]
 6399 00f8 ADE7     		b	.L927
 6400              	.L938:
 6401 00fa 636A     		ldr	r3, [r4, #36]
 6402 00fc 494A     		ldr	r2, .L960
 6403 00fe 9A62     		str	r2, [r3, #40]
 6404 0100 636A     		ldr	r3, [r4, #36]
 6405 0102 494A     		ldr	r2, .L960+4
 6406 0104 DA62     		str	r2, [r3, #44]
 6407 0106 636A     		ldr	r3, [r4, #36]
 6408 0108 484A     		ldr	r2, .L960+8
 6409 010a 1A63     		str	r2, [r3, #48]
 6410 010c 2168     		ldr	r1, [r4]
 6411 010e 3B46     		mov	r3, r7
 6412 0110 3246     		mov	r2, r6
 6413 0112 3431     		adds	r1, r1, #52
 6414 0114 606A     		ldr	r0, [r4, #36]
 6415 0116 FFF7FEFF 		bl	HAL_DMA_Start_IT
 6416 011a 0028     		cmp	r0, #0
 6417 011c 78D1     		bne	.L945
 6418 011e 2268     		ldr	r2, [r4]
 6419 0120 D368     		ldr	r3, [r2, #12]
 6420 0122 43F40073 		orr	r3, r3, #512
 6421 0126 D360     		str	r3, [r2, #12]
 6422 0128 8046     		mov	r8, r0
 6423              	.L933:
 6424 012a 2368     		ldr	r3, [r4]
 6425 012c 404A     		ldr	r2, .L960+12
 6426 012e 9342     		cmp	r3, r2
 6427 0130 5AD0     		beq	.L939
 6428 0132 B3F1804F 		cmp	r3, #1073741824
ARM GAS  C:\Users\matve\AppData\Local\Temp\ccRkZNWM.s 			page 110


 6429 0136 57D0     		beq	.L939
 6430 0138 A2F59432 		sub	r2, r2, #75776
 6431 013c 9342     		cmp	r3, r2
 6432 013e 53D0     		beq	.L939
 6433 0140 02F58062 		add	r2, r2, #1024
 6434 0144 9342     		cmp	r3, r2
 6435 0146 4FD0     		beq	.L939
 6436 0148 1A68     		ldr	r2, [r3]
 6437 014a 42F00102 		orr	r2, r2, #1
 6438 014e 1A60     		str	r2, [r3]
 6439 0150 4046     		mov	r0, r8
 6440 0152 57E0     		b	.L925
 6441              	.L937:
 6442 0154 A36A     		ldr	r3, [r4, #40]
 6443 0156 334A     		ldr	r2, .L960
 6444 0158 9A62     		str	r2, [r3, #40]
 6445 015a A36A     		ldr	r3, [r4, #40]
 6446 015c 324A     		ldr	r2, .L960+4
 6447 015e DA62     		str	r2, [r3, #44]
 6448 0160 A36A     		ldr	r3, [r4, #40]
 6449 0162 324A     		ldr	r2, .L960+8
 6450 0164 1A63     		str	r2, [r3, #48]
 6451 0166 2168     		ldr	r1, [r4]
 6452 0168 3B46     		mov	r3, r7
 6453 016a 3246     		mov	r2, r6
 6454 016c 3831     		adds	r1, r1, #56
 6455 016e A06A     		ldr	r0, [r4, #40]
 6456 0170 FFF7FEFF 		bl	HAL_DMA_Start_IT
 6457 0174 0028     		cmp	r0, #0
 6458 0176 4DD1     		bne	.L946
 6459 0178 2268     		ldr	r2, [r4]
 6460 017a D368     		ldr	r3, [r2, #12]
 6461 017c 43F48063 		orr	r3, r3, #1024
 6462 0180 D360     		str	r3, [r2, #12]
 6463 0182 8046     		mov	r8, r0
 6464 0184 D1E7     		b	.L933
 6465              	.L936:
 6466 0186 E36A     		ldr	r3, [r4, #44]
 6467 0188 264A     		ldr	r2, .L960
 6468 018a 9A62     		str	r2, [r3, #40]
 6469 018c E36A     		ldr	r3, [r4, #44]
 6470 018e 264A     		ldr	r2, .L960+4
 6471 0190 DA62     		str	r2, [r3, #44]
 6472 0192 E36A     		ldr	r3, [r4, #44]
 6473 0194 254A     		ldr	r2, .L960+8
 6474 0196 1A63     		str	r2, [r3, #48]
 6475 0198 2168     		ldr	r1, [r4]
 6476 019a 3B46     		mov	r3, r7
 6477 019c 3246     		mov	r2, r6
 6478 019e 3C31     		adds	r1, r1, #60
 6479 01a0 E06A     		ldr	r0, [r4, #44]
 6480 01a2 FFF7FEFF 		bl	HAL_DMA_Start_IT
 6481 01a6 0028     		cmp	r0, #0
 6482 01a8 36D1     		bne	.L947
 6483 01aa 2268     		ldr	r2, [r4]
 6484 01ac D368     		ldr	r3, [r2, #12]
 6485 01ae 43F40063 		orr	r3, r3, #2048
ARM GAS  C:\Users\matve\AppData\Local\Temp\ccRkZNWM.s 			page 111


 6486 01b2 D360     		str	r3, [r2, #12]
 6487 01b4 8046     		mov	r8, r0
 6488 01b6 B8E7     		b	.L933
 6489              	.L934:
 6490 01b8 236B     		ldr	r3, [r4, #48]
 6491 01ba 1A4A     		ldr	r2, .L960
 6492 01bc 9A62     		str	r2, [r3, #40]
 6493 01be 236B     		ldr	r3, [r4, #48]
 6494 01c0 194A     		ldr	r2, .L960+4
 6495 01c2 DA62     		str	r2, [r3, #44]
 6496 01c4 236B     		ldr	r3, [r4, #48]
 6497 01c6 194A     		ldr	r2, .L960+8
 6498 01c8 1A63     		str	r2, [r3, #48]
 6499 01ca 2168     		ldr	r1, [r4]
 6500 01cc 3B46     		mov	r3, r7
 6501 01ce 3246     		mov	r2, r6
 6502 01d0 4031     		adds	r1, r1, #64
 6503 01d2 206B     		ldr	r0, [r4, #48]
 6504 01d4 FFF7FEFF 		bl	HAL_DMA_Start_IT
 6505 01d8 00BB     		cbnz	r0, .L948
 6506 01da 2268     		ldr	r2, [r4]
 6507 01dc D368     		ldr	r3, [r2, #12]
 6508 01de 43F48053 		orr	r3, r3, #4096
 6509 01e2 D360     		str	r3, [r2, #12]
 6510 01e4 8046     		mov	r8, r0
 6511 01e6 A0E7     		b	.L933
 6512              	.L939:
 6513 01e8 9A68     		ldr	r2, [r3, #8]
 6514 01ea 02F00702 		and	r2, r2, #7
 6515 01ee 062A     		cmp	r2, #6
 6516 01f0 16D0     		beq	.L949
 6517 01f2 1A68     		ldr	r2, [r3]
 6518 01f4 42F00102 		orr	r2, r2, #1
 6519 01f8 1A60     		str	r2, [r3]
 6520 01fa 4046     		mov	r0, r8
 6521 01fc 02E0     		b	.L925
 6522              	.L941:
 6523 01fe 4046     		mov	r0, r8
 6524 0200 00E0     		b	.L925
 6525              	.L942:
 6526 0202 0120     		movs	r0, #1
 6527              	.L925:
 6528 0204 BDE8F081 		pop	{r4, r5, r6, r7, r8, pc}
 6529              	.L943:
 6530 0208 4046     		mov	r0, r8
 6531 020a FBE7     		b	.L925
 6532              	.L944:
 6533 020c 4046     		mov	r0, r8
 6534 020e F9E7     		b	.L925
 6535              	.L945:
 6536 0210 4046     		mov	r0, r8
 6537 0212 F7E7     		b	.L925
 6538              	.L946:
 6539 0214 4046     		mov	r0, r8
 6540 0216 F5E7     		b	.L925
 6541              	.L947:
 6542 0218 4046     		mov	r0, r8
ARM GAS  C:\Users\matve\AppData\Local\Temp\ccRkZNWM.s 			page 112


 6543 021a F3E7     		b	.L925
 6544              	.L948:
 6545 021c 4046     		mov	r0, r8
 6546 021e F1E7     		b	.L925
 6547              	.L949:
 6548 0220 4046     		mov	r0, r8
 6549 0222 EFE7     		b	.L925
 6550              	.L961:
 6551              		.align	2
 6552              	.L960:
 6553 0224 00000000 		.word	TIM_DMACaptureCplt
 6554 0228 00000000 		.word	TIM_DMACaptureHalfCplt
 6555 022c 00000000 		.word	TIM_DMAError
 6556 0230 002C0140 		.word	1073818624
 6558              		.section	.text.HAL_TIM_IC_Stop_DMA,"ax",%progbits
 6559              		.align	1
 6560              		.global	HAL_TIM_IC_Stop_DMA
 6561              		.syntax unified
 6562              		.thumb
 6563              		.thumb_func
 6565              	HAL_TIM_IC_Stop_DMA:
 6566              		@ args = 0, pretend = 0, frame = 0
 6567              		@ frame_needed = 0, uses_anonymous_args = 0
 6568 0000 38B5     		push	{r3, r4, r5, lr}
 6569 0002 0446     		mov	r4, r0
 6570 0004 0D46     		mov	r5, r1
 6571 0006 0022     		movs	r2, #0
 6572 0008 0068     		ldr	r0, [r0]
 6573 000a FFF7FEFF 		bl	TIM_CCxChannelCmd
 6574 000e 0C2D     		cmp	r5, #12
 6575 0010 64D8     		bhi	.L977
 6576 0012 DFE805F0 		tbb	[pc, r5]
 6577              	.L965:
 6578 0016 07       		.byte	(.L968-.L965)/2
 6579 0017 63       		.byte	(.L977-.L965)/2
 6580 0018 63       		.byte	(.L977-.L965)/2
 6581 0019 63       		.byte	(.L977-.L965)/2
 6582 001a 26       		.byte	(.L967-.L965)/2
 6583 001b 63       		.byte	(.L977-.L965)/2
 6584 001c 63       		.byte	(.L977-.L965)/2
 6585 001d 63       		.byte	(.L977-.L965)/2
 6586 001e 2F       		.byte	(.L966-.L965)/2
 6587 001f 63       		.byte	(.L977-.L965)/2
 6588 0020 63       		.byte	(.L977-.L965)/2
 6589 0021 63       		.byte	(.L977-.L965)/2
 6590 0022 38       		.byte	(.L964-.L965)/2
 6591 0023 00       		.p2align 1
 6592              	.L968:
 6593 0024 2268     		ldr	r2, [r4]
 6594 0026 D368     		ldr	r3, [r2, #12]
 6595 0028 23F40073 		bic	r3, r3, #512
 6596 002c D360     		str	r3, [r2, #12]
 6597 002e 606A     		ldr	r0, [r4, #36]
 6598 0030 FFF7FEFF 		bl	HAL_DMA_Abort_IT
 6599              	.L969:
 6600 0034 2368     		ldr	r3, [r4]
 6601 0036 196A     		ldr	r1, [r3, #32]
ARM GAS  C:\Users\matve\AppData\Local\Temp\ccRkZNWM.s 			page 113


 6602 0038 41F21112 		movw	r2, #4369
 6603 003c 1142     		tst	r1, r2
 6604 003e 08D1     		bne	.L970
 6605 0040 196A     		ldr	r1, [r3, #32]
 6606 0042 40F24442 		movw	r2, #1092
 6607 0046 1142     		tst	r1, r2
 6608 0048 03D1     		bne	.L970
 6609 004a 1A68     		ldr	r2, [r3]
 6610 004c 22F00102 		bic	r2, r2, #1
 6611 0050 1A60     		str	r2, [r3]
 6612              	.L970:
 6613 0052 0DBB     		cbnz	r5, .L971
 6614 0054 0123     		movs	r3, #1
 6615 0056 84F83E30 		strb	r3, [r4, #62]
 6616 005a 84F84230 		strb	r3, [r4, #66]
 6617 005e 0020     		movs	r0, #0
 6618 0060 3DE0     		b	.L963
 6619              	.L967:
 6620 0062 2268     		ldr	r2, [r4]
 6621 0064 D368     		ldr	r3, [r2, #12]
 6622 0066 23F48063 		bic	r3, r3, #1024
 6623 006a D360     		str	r3, [r2, #12]
 6624 006c A06A     		ldr	r0, [r4, #40]
 6625 006e FFF7FEFF 		bl	HAL_DMA_Abort_IT
 6626 0072 DFE7     		b	.L969
 6627              	.L966:
 6628 0074 2268     		ldr	r2, [r4]
 6629 0076 D368     		ldr	r3, [r2, #12]
 6630 0078 23F40063 		bic	r3, r3, #2048
 6631 007c D360     		str	r3, [r2, #12]
 6632 007e E06A     		ldr	r0, [r4, #44]
 6633 0080 FFF7FEFF 		bl	HAL_DMA_Abort_IT
 6634 0084 D6E7     		b	.L969
 6635              	.L964:
 6636 0086 2268     		ldr	r2, [r4]
 6637 0088 D368     		ldr	r3, [r2, #12]
 6638 008a 23F48053 		bic	r3, r3, #4096
 6639 008e D360     		str	r3, [r2, #12]
 6640 0090 206B     		ldr	r0, [r4, #48]
 6641 0092 FFF7FEFF 		bl	HAL_DMA_Abort_IT
 6642 0096 CDE7     		b	.L969
 6643              	.L971:
 6644 0098 042D     		cmp	r5, #4
 6645 009a 0DD0     		beq	.L979
 6646 009c 082D     		cmp	r5, #8
 6647 009e 0FD0     		beq	.L980
 6648 00a0 0123     		movs	r3, #1
 6649 00a2 84F84130 		strb	r3, [r4, #65]
 6650              	.L973:
 6651 00a6 042D     		cmp	r5, #4
 6652 00a8 0ED0     		beq	.L981
 6653 00aa 082D     		cmp	r5, #8
 6654 00ac 11D0     		beq	.L982
 6655 00ae 0123     		movs	r3, #1
 6656 00b0 84F84530 		strb	r3, [r4, #69]
 6657 00b4 0020     		movs	r0, #0
 6658 00b6 12E0     		b	.L963
ARM GAS  C:\Users\matve\AppData\Local\Temp\ccRkZNWM.s 			page 114


 6659              	.L979:
 6660 00b8 0123     		movs	r3, #1
 6661 00ba 84F83F30 		strb	r3, [r4, #63]
 6662 00be F2E7     		b	.L973
 6663              	.L980:
 6664 00c0 0123     		movs	r3, #1
 6665 00c2 84F84030 		strb	r3, [r4, #64]
 6666 00c6 EEE7     		b	.L973
 6667              	.L981:
 6668 00c8 0123     		movs	r3, #1
 6669 00ca 84F84330 		strb	r3, [r4, #67]
 6670 00ce 0020     		movs	r0, #0
 6671 00d0 05E0     		b	.L963
 6672              	.L982:
 6673 00d2 0123     		movs	r3, #1
 6674 00d4 84F84430 		strb	r3, [r4, #68]
 6675 00d8 0020     		movs	r0, #0
 6676 00da 00E0     		b	.L963
 6677              	.L977:
 6678 00dc 0120     		movs	r0, #1
 6679              	.L963:
 6680 00de 38BD     		pop	{r3, r4, r5, pc}
 6682              		.section	.text.HAL_TIM_OnePulse_Start,"ax",%progbits
 6683              		.align	1
 6684              		.global	HAL_TIM_OnePulse_Start
 6685              		.syntax unified
 6686              		.thumb
 6687              		.thumb_func
 6689              	HAL_TIM_OnePulse_Start:
 6690              		@ args = 0, pretend = 0, frame = 0
 6691              		@ frame_needed = 0, uses_anonymous_args = 0
 6692 0000 10B5     		push	{r4, lr}
 6693 0002 0446     		mov	r4, r0
 6694 0004 90F83E00 		ldrb	r0, [r0, #62]	@ zero_extendqisi2
 6695 0008 C0B2     		uxtb	r0, r0
 6696 000a 94F83F30 		ldrb	r3, [r4, #63]	@ zero_extendqisi2
 6697 000e 94F84220 		ldrb	r2, [r4, #66]	@ zero_extendqisi2
 6698 0012 94F84310 		ldrb	r1, [r4, #67]	@ zero_extendqisi2
 6699 0016 0128     		cmp	r0, #1
 6700 0018 28D1     		bne	.L985
 6701 001a DBB2     		uxtb	r3, r3
 6702 001c D2B2     		uxtb	r2, r2
 6703 001e C9B2     		uxtb	r1, r1
 6704 0020 012B     		cmp	r3, #1
