ARM GAS  C:\Users\matve\AppData\Local\Temp\ccWy5eTQ.s 			page 1


   1              		.cpu cortex-m3
   2              		.arch armv7-m
   3              		.fpu softvfp
   4              		.eabi_attribute 20, 1
   5              		.eabi_attribute 21, 1
   6              		.eabi_attribute 23, 3
   7              		.eabi_attribute 24, 1
   8              		.eabi_attribute 25, 1
   9              		.eabi_attribute 26, 1
  10              		.eabi_attribute 30, 1
  11              		.eabi_attribute 34, 1
  12              		.eabi_attribute 18, 4
  13              		.file	"usbd_desc.c"
  14              		.text
  15              		.section	.text.USBD_FS_DeviceDescriptor,"ax",%progbits
  16              		.align	1
  17              		.global	USBD_FS_DeviceDescriptor
  18              		.syntax unified
  19              		.thumb
  20              		.thumb_func
  22              	USBD_FS_DeviceDescriptor:
  23              		@ args = 0, pretend = 0, frame = 0
  24              		@ frame_needed = 0, uses_anonymous_args = 0
  25              		@ link register save eliminated.
  26 0000 1223     		movs	r3, #18
  27 0002 0B80     		strh	r3, [r1]	@ movhi
  28 0004 0048     		ldr	r0, .L2
  29 0006 7047     		bx	lr
  30              	.L3:
  31              		.align	2
  32              	.L2:
  33 0008 00000000 		.word	USBD_FS_DeviceDesc
  35              		.section	.text.USBD_FS_LangIDStrDescriptor,"ax",%progbits
  36              		.align	1
  37              		.global	USBD_FS_LangIDStrDescriptor
  38              		.syntax unified
  39              		.thumb
  40              		.thumb_func
  42              	USBD_FS_LangIDStrDescriptor:
  43              		@ args = 0, pretend = 0, frame = 0
  44              		@ frame_needed = 0, uses_anonymous_args = 0
  45              		@ link register save eliminated.
  46 0000 0423     		movs	r3, #4
  47 0002 0B80     		strh	r3, [r1]	@ movhi
  48 0004 0048     		ldr	r0, .L5
  49 0006 7047     		bx	lr
  50              	.L6:
  51              		.align	2
  52              	.L5:
  53 0008 00000000 		.word	USBD_LangIDDesc
  55              		.section	.text.IntToUnicode,"ax",%progbits
  56              		.align	1
  57              		.syntax unified
  58              		.thumb
  59              		.thumb_func
  61              	IntToUnicode:
  62              		@ args = 0, pretend = 0, frame = 0
ARM GAS  C:\Users\matve\AppData\Local\Temp\ccWy5eTQ.s 			page 2


  63              		@ frame_needed = 0, uses_anonymous_args = 0
  64 0000 0023     		movs	r3, #0
  65 0002 9342     		cmp	r3, r2
  66 0004 1ED2     		bcs	.L15
  67 0006 00B5     		push	{lr}
  68 0008 10E0     		b	.L11
  69              	.L9:
  70 000a 0CF1370C 		add	ip, ip, #55
  71 000e 01F813C0 		strb	ip, [r1, r3, lsl #1]
  72              	.L10:
  73 0012 0001     		lsls	r0, r0, #4
  74 0014 4FEA430C 		lsl	ip, r3, #1
  75 0018 0CF1010C 		add	ip, ip, #1
  76 001c 4FF0000E 		mov	lr, #0
  77 0020 01F80CE0 		strb	lr, [r1, ip]
  78 0024 0133     		adds	r3, r3, #1
  79 0026 DBB2     		uxtb	r3, r3
  80 0028 9342     		cmp	r3, r2
  81 002a 09D2     		bcs	.L16
  82              	.L11:
  83 002c 4FEA107C 		lsr	ip, r0, #28
  84 0030 B0F1204F 		cmp	r0, #-1610612736
  85 0034 E9D2     		bcs	.L9
  86 0036 0CF1300C 		add	ip, ip, #48
  87 003a 01F813C0 		strb	ip, [r1, r3, lsl #1]
  88 003e E8E7     		b	.L10
  89              	.L16:
  90 0040 5DF804FB 		ldr	pc, [sp], #4
  91              	.L15:
  92 0044 7047     		bx	lr
  94              		.section	.text.Get_SerialNum,"ax",%progbits
  95              		.align	1
  96              		.syntax unified
  97              		.thumb
  98              		.thumb_func
 100              	Get_SerialNum:
 101              		@ args = 0, pretend = 0, frame = 0
 102              		@ frame_needed = 0, uses_anonymous_args = 0
 103 0000 0020     		movs	r0, #0
 104 0002 00B9     		cbnz	r0, .L23
 105 0004 7047     		bx	lr
 106              	.L23:
 107 0006 10B5     		push	{r4, lr}
 108 0008 054C     		ldr	r4, .L24
 109 000a 0822     		movs	r2, #8
 110 000c 2146     		mov	r1, r4
 111 000e FFF7FEFF 		bl	IntToUnicode
 112 0012 0422     		movs	r2, #4
 113 0014 04F11001 		add	r1, r4, #16
 114 0018 0020     		movs	r0, #0
 115 001a FFF7FEFF 		bl	IntToUnicode
 116 001e 10BD     		pop	{r4, pc}
 117              	.L25:
 118              		.align	2
 119              	.L24:
 120 0020 02000000 		.word	USBD_StringSerial+2
 122              		.section	.text.USBD_FS_SerialStrDescriptor,"ax",%progbits
ARM GAS  C:\Users\matve\AppData\Local\Temp\ccWy5eTQ.s 			page 3


 123              		.align	1
 124              		.global	USBD_FS_SerialStrDescriptor
 125              		.syntax unified
 126              		.thumb
 127              		.thumb_func
 129              	USBD_FS_SerialStrDescriptor:
 130              		@ args = 0, pretend = 0, frame = 0
 131              		@ frame_needed = 0, uses_anonymous_args = 0
 132 0000 08B5     		push	{r3, lr}
 133 0002 1A23     		movs	r3, #26
 134 0004 0B80     		strh	r3, [r1]	@ movhi
 135 0006 FFF7FEFF 		bl	Get_SerialNum
 136 000a 0148     		ldr	r0, .L28
 137 000c 08BD     		pop	{r3, pc}
 138              	.L29:
 139 000e 00BF     		.align	2
 140              	.L28:
 141 0010 00000000 		.word	USBD_StringSerial
 143              		.section	.rodata.USBD_FS_ProductStrDescriptor.str1.4,"aMS",%progbits,1
 144              		.align	2
 145              	.LC0:
 146 0000 53544D33 		.ascii	"STM32 Virtual ComPort\000"
 146      32205669 
 146      72747561 
 146      6C20436F 
 146      6D506F72 
 147              		.section	.text.USBD_FS_ProductStrDescriptor,"ax",%progbits
 148              		.align	1
 149              		.global	USBD_FS_ProductStrDescriptor
 150              		.syntax unified
 151              		.thumb
 152              		.thumb_func
 154              	USBD_FS_ProductStrDescriptor:
 155              		@ args = 0, pretend = 0, frame = 0
 156              		@ frame_needed = 0, uses_anonymous_args = 0
 157 0000 08B5     		push	{r3, lr}
 158 0002 0A46     		mov	r2, r1
 159 0004 28B9     		cbnz	r0, .L31
 160 0006 0549     		ldr	r1, .L34
 161 0008 0548     		ldr	r0, .L34+4
 162 000a FFF7FEFF 		bl	USBD_GetString
 163              	.L32:
 164 000e 0348     		ldr	r0, .L34
 165 0010 08BD     		pop	{r3, pc}
 166              	.L31:
 167 0012 0249     		ldr	r1, .L34
 168 0014 0248     		ldr	r0, .L34+4
 169 0016 FFF7FEFF 		bl	USBD_GetString
 170 001a F8E7     		b	.L32
 171              	.L35:
 172              		.align	2
 173              	.L34:
 174 001c 00000000 		.word	USBD_StrDesc
 175 0020 00000000 		.word	.LC0
 177              		.section	.rodata.USBD_FS_ManufacturerStrDescriptor.str1.4,"aMS",%progbits,1
 178              		.align	2
 179              	.LC1:
ARM GAS  C:\Users\matve\AppData\Local\Temp\ccWy5eTQ.s 			page 4


 180 0000 53544D69 		.ascii	"STMicroelectronics\000"
 180      63726F65 
 180      6C656374 
 180      726F6E69 
 180      637300
 181              		.section	.text.USBD_FS_ManufacturerStrDescriptor,"ax",%progbits
 182              		.align	1
 183              		.global	USBD_FS_ManufacturerStrDescriptor
 184              		.syntax unified
 185              		.thumb
 186              		.thumb_func
 188              	USBD_FS_ManufacturerStrDescriptor:
 189              		@ args = 0, pretend = 0, frame = 0
 190              		@ frame_needed = 0, uses_anonymous_args = 0
 191 0000 10B5     		push	{r4, lr}
 192 0002 0A46     		mov	r2, r1
 193 0004 034C     		ldr	r4, .L38
 194 0006 2146     		mov	r1, r4
 195 0008 0348     		ldr	r0, .L38+4
 196 000a FFF7FEFF 		bl	USBD_GetString
 197 000e 2046     		mov	r0, r4
 198 0010 10BD     		pop	{r4, pc}
 199              	.L39:
 200 0012 00BF     		.align	2
 201              	.L38:
 202 0014 00000000 		.word	USBD_StrDesc
 203 0018 00000000 		.word	.LC1
 205              		.section	.rodata.USBD_FS_ConfigStrDescriptor.str1.4,"aMS",%progbits,1
 206              		.align	2
 207              	.LC2:
 208 0000 43444320 		.ascii	"CDC Config\000"
 208      436F6E66 
 208      696700
 209              		.section	.text.USBD_FS_ConfigStrDescriptor,"ax",%progbits
 210              		.align	1
 211              		.global	USBD_FS_ConfigStrDescriptor
 212              		.syntax unified
 213              		.thumb
 214              		.thumb_func
 216              	USBD_FS_ConfigStrDescriptor:
 217              		@ args = 0, pretend = 0, frame = 0
 218              		@ frame_needed = 0, uses_anonymous_args = 0
 219 0000 08B5     		push	{r3, lr}
 220 0002 0A46     		mov	r2, r1
 221 0004 28B9     		cbnz	r0, .L41
 222 0006 0549     		ldr	r1, .L44
 223 0008 0548     		ldr	r0, .L44+4
 224 000a FFF7FEFF 		bl	USBD_GetString
 225              	.L42:
 226 000e 0348     		ldr	r0, .L44
 227 0010 08BD     		pop	{r3, pc}
 228              	.L41:
 229 0012 0249     		ldr	r1, .L44
 230 0014 0248     		ldr	r0, .L44+4
 231 0016 FFF7FEFF 		bl	USBD_GetString
 232 001a F8E7     		b	.L42
 233              	.L45:
ARM GAS  C:\Users\matve\AppData\Local\Temp\ccWy5eTQ.s 			page 5


 234              		.align	2
 235              	.L44:
 236 001c 00000000 		.word	USBD_StrDesc
 237 0020 00000000 		.word	.LC2
 239              		.section	.rodata.USBD_FS_InterfaceStrDescriptor.str1.4,"aMS",%progbits,1
 240              		.align	2
 241              	.LC3:
 242 0000 43444320 		.ascii	"CDC Interface\000"
 242      496E7465 
 242      72666163 
 242      6500
 243              		.section	.text.USBD_FS_InterfaceStrDescriptor,"ax",%progbits
 244              		.align	1
 245              		.global	USBD_FS_InterfaceStrDescriptor
 246              		.syntax unified
 247              		.thumb
 248              		.thumb_func
 250              	USBD_FS_InterfaceStrDescriptor:
 251              		@ args = 0, pretend = 0, frame = 0
 252              		@ frame_needed = 0, uses_anonymous_args = 0
 253 0000 08B5     		push	{r3, lr}
 254 0002 0A46     		mov	r2, r1
 255 0004 28B9     		cbnz	r0, .L47
 256 0006 0549     		ldr	r1, .L50
 257 0008 0548     		ldr	r0, .L50+4
 258 000a FFF7FEFF 		bl	USBD_GetString
 259              	.L48:
 260 000e 0348     		ldr	r0, .L50
 261 0010 08BD     		pop	{r3, pc}
 262              	.L47:
 263 0012 0249     		ldr	r1, .L50
 264 0014 0248     		ldr	r0, .L50+4
 265 0016 FFF7FEFF 		bl	USBD_GetString
 266 001a F8E7     		b	.L48
 267              	.L51:
 268              		.align	2
 269              	.L50:
 270 001c 00000000 		.word	USBD_StrDesc
 271 0020 00000000 		.word	.LC3
 273              		.global	USBD_StringSerial
 274              		.section	.data.USBD_StringSerial,"aw"
 275              		.align	2
 278              	USBD_StringSerial:
 279 0000 1A0300   		.ascii	"\032\003\000"
 280 0003 00000000 		.space	23
 280      00000000 
 280      00000000 
 280      00000000 
 280      00000000 
 281              		.global	USBD_StrDesc
 282              		.section	.bss.USBD_StrDesc,"aw",%nobits
 283              		.align	2
 286              	USBD_StrDesc:
 287 0000 00000000 		.space	512
 287      00000000 
 287      00000000 
 287      00000000 
ARM GAS  C:\Users\matve\AppData\Local\Temp\ccWy5eTQ.s 			page 6


 287      00000000 
 288              		.global	USBD_LangIDDesc
 289              		.section	.data.USBD_LangIDDesc,"aw"
 290              		.align	2
 293              	USBD_LangIDDesc:
 294 0000 04030904 		.ascii	"\004\003\011\004"
 295              		.global	USBD_FS_DeviceDesc
 296              		.section	.data.USBD_FS_DeviceDesc,"aw"
 297              		.align	2
 300              	USBD_FS_DeviceDesc:
 301 0000 12010002 		.ascii	"\022\001\000\002\002\002\000@\203\004@W\000\002\001"
 301      02020040 
 301      83044057 
 301      000201
 302 000f 020301   		.ascii	"\002\003\001"
 303              		.global	FS_Desc
 304              		.section	.data.FS_Desc,"aw"
 305              		.align	2
 308              	FS_Desc:
 309 0000 00000000 		.word	USBD_FS_DeviceDescriptor
 310 0004 00000000 		.word	USBD_FS_LangIDStrDescriptor
 311 0008 00000000 		.word	USBD_FS_ManufacturerStrDescriptor
 312 000c 00000000 		.word	USBD_FS_ProductStrDescriptor
 313 0010 00000000 		.word	USBD_FS_SerialStrDescriptor
 314 0014 00000000 		.word	USBD_FS_ConfigStrDescriptor
 315 0018 00000000 		.word	USBD_FS_InterfaceStrDescriptor
 316              		.ident	"GCC: (xPack GNU Arm Embedded GCC x86_64) 13.2.1 20231009"
ARM GAS  C:\Users\matve\AppData\Local\Temp\ccWy5eTQ.s 			page 7

