ARM GAS  C:\Users\Asus\AppData\Local\Temp\ccH0qR9M.s 			page 1


   1              		.cpu cortex-m4
   2              		.arch armv7e-m
   3              		.fpu fpv4-sp-d16
   4              		.eabi_attribute 27, 1
   5              		.eabi_attribute 28, 1
   6              		.eabi_attribute 20, 1
   7              		.eabi_attribute 21, 1
   8              		.eabi_attribute 23, 3
   9              		.eabi_attribute 24, 1
  10              		.eabi_attribute 25, 1
  11              		.eabi_attribute 26, 1
  12              		.eabi_attribute 30, 1
  13              		.eabi_attribute 34, 1
  14              		.eabi_attribute 18, 4
  15              		.file	"interrupt.c"
  16              		.text
  17              	.Ltext0:
  18              		.cfi_sections	.debug_frame
  19              		.file 1 "Core/Src/interrupt.c"
  20              		.section	.text.EXTI15_10_IRQHandler,"ax",%progbits
  21              		.align	1
  22              		.global	EXTI15_10_IRQHandler
  23              		.syntax unified
  24              		.thumb
  25              		.thumb_func
  27              	EXTI15_10_IRQHandler:
  28              	.LFB130:
   1:Core/Src/interrupt.c **** #include "interrupt.h"
   2:Core/Src/interrupt.c **** 
   3:Core/Src/interrupt.c **** uint8_t last_state, FLAG_DELAY, FLAG_BUTTON;
   4:Core/Src/interrupt.c **** uint32_t delay_count;
   5:Core/Src/interrupt.c **** 
   6:Core/Src/interrupt.c **** void EXTI15_10_IRQHandler(void)
   7:Core/Src/interrupt.c **** {
  29              		.loc 1 7 1 view -0
  30              		.cfi_startproc
  31              		@ args = 0, pretend = 0, frame = 0
  32              		@ frame_needed = 0, uses_anonymous_args = 0
  33              		@ link register save eliminated.
   8:Core/Src/interrupt.c ****     SET_BIT(EXTI->PR, EXTI_PR_PR11);
  34              		.loc 1 8 5 view .LVU1
  35 0000 194B     		ldr	r3, .L5
  36 0002 5A69     		ldr	r2, [r3, #20]
  37 0004 42F40062 		orr	r2, r2, #2048
  38 0008 5A61     		str	r2, [r3, #20]
   9:Core/Src/interrupt.c ****     SET_BIT(EXTI->PR, EXTI_PR_PR13);
  39              		.loc 1 9 5 view .LVU2
  40 000a 5A69     		ldr	r2, [r3, #20]
  41 000c 42F40052 		orr	r2, r2, #8192
  42 0010 5A61     		str	r2, [r3, #20]
  10:Core/Src/interrupt.c ****     if (READ_BIT(GPIOC->IDR, GPIO_IDR_ID11))
  43              		.loc 1 10 5 view .LVU3
  44              		.loc 1 10 9 is_stmt 0 view .LVU4
  45 0012 03F54C43 		add	r3, r3, #52224
  46 0016 1B69     		ldr	r3, [r3, #16]
  47              		.loc 1 10 8 view .LVU5
  48 0018 13F4006F 		tst	r3, #2048
ARM GAS  C:\Users\Asus\AppData\Local\Temp\ccH0qR9M.s 			page 2


  49 001c 12D0     		beq	.L2
  11:Core/Src/interrupt.c ****     {
  12:Core/Src/interrupt.c ****         FLAG_BUTTON = 1;
  50              		.loc 1 12 9 is_stmt 1 view .LVU6
  51              		.loc 1 12 21 is_stmt 0 view .LVU7
  52 001e 134B     		ldr	r3, .L5+4
  53 0020 0122     		movs	r2, #1
  54 0022 1A70     		strb	r2, [r3]
  13:Core/Src/interrupt.c ****         if (button_delay_tim_count >= 20)
  55              		.loc 1 13 9 is_stmt 1 view .LVU8
  56              		.loc 1 13 36 is_stmt 0 view .LVU9
  57 0024 124B     		ldr	r3, .L5+8
  58 0026 1B88     		ldrh	r3, [r3]
  59 0028 9BB2     		uxth	r3, r3
  60              		.loc 1 13 12 view .LVU10
  61 002a 132B     		cmp	r3, #19
  62 002c 07D9     		bls	.L3
  14:Core/Src/interrupt.c ****         {
  15:Core/Src/interrupt.c ****             btnCount1++;
  63              		.loc 1 15 13 is_stmt 1 view .LVU11
  64              		.loc 1 15 22 is_stmt 0 view .LVU12
  65 002e 114A     		ldr	r2, .L5+12
  66 0030 1378     		ldrb	r3, [r2]	@ zero_extendqisi2
  67 0032 0133     		adds	r3, r3, #1
  68 0034 DBB2     		uxtb	r3, r3
  69 0036 1370     		strb	r3, [r2]
  16:Core/Src/interrupt.c ****             button_delay_tim_count = 0;
  70              		.loc 1 16 13 is_stmt 1 view .LVU13
  71              		.loc 1 16 36 is_stmt 0 view .LVU14
  72 0038 0D4B     		ldr	r3, .L5+8
  73 003a 0022     		movs	r2, #0
  74 003c 1A80     		strh	r2, [r3]	@ movhi
  75              	.L3:
  17:Core/Src/interrupt.c ****         }
  18:Core/Src/interrupt.c ****         FLAG_BUTTON = 0;
  76              		.loc 1 18 9 is_stmt 1 view .LVU15
  77              		.loc 1 18 21 is_stmt 0 view .LVU16
  78 003e 0B4B     		ldr	r3, .L5+4
  79 0040 0022     		movs	r2, #0
  80 0042 1A70     		strb	r2, [r3]
  81              	.L2:
  19:Core/Src/interrupt.c ****     }
  20:Core/Src/interrupt.c ****     if (READ_BIT(GPIOC->IDR, GPIO_IDR_ID12))
  82              		.loc 1 20 5 is_stmt 1 view .LVU17
  83              		.loc 1 20 9 is_stmt 0 view .LVU18
  84 0044 0C4B     		ldr	r3, .L5+16
  85 0046 1B69     		ldr	r3, [r3, #16]
  86              		.loc 1 20 8 view .LVU19
  87 0048 13F4805F 		tst	r3, #4096
  88 004c 0AD0     		beq	.L1
  21:Core/Src/interrupt.c ****     {
  22:Core/Src/interrupt.c ****         btnCount2++;
  89              		.loc 1 22 9 is_stmt 1 view .LVU20
  90              		.loc 1 22 18 is_stmt 0 view .LVU21
  91 004e 0B4A     		ldr	r2, .L5+20
  92 0050 1378     		ldrb	r3, [r2]	@ zero_extendqisi2
  93 0052 0133     		adds	r3, r3, #1
ARM GAS  C:\Users\Asus\AppData\Local\Temp\ccH0qR9M.s 			page 3


  94 0054 DBB2     		uxtb	r3, r3
  95 0056 1370     		strb	r3, [r2]
  23:Core/Src/interrupt.c ****         flag = !flag;
  96              		.loc 1 23 9 is_stmt 1 view .LVU22
  97              		.loc 1 23 16 is_stmt 0 view .LVU23
  98 0058 094A     		ldr	r2, .L5+24
  99 005a 1378     		ldrb	r3, [r2]	@ zero_extendqisi2
 100 005c B3FA83F3 		clz	r3, r3
 101 0060 5B09     		lsrs	r3, r3, #5
 102              		.loc 1 23 14 view .LVU24
 103 0062 1370     		strb	r3, [r2]
 104              	.L1:
  24:Core/Src/interrupt.c ****     }
  25:Core/Src/interrupt.c **** }
 105              		.loc 1 25 1 view .LVU25
 106 0064 7047     		bx	lr
 107              	.L6:
 108 0066 00BF     		.align	2
 109              	.L5:
 110 0068 003C0140 		.word	1073822720
 111 006c 00000000 		.word	FLAG_BUTTON
 112 0070 00000000 		.word	button_delay_tim_count
 113 0074 00000000 		.word	btnCount1
 114 0078 00080240 		.word	1073874944
 115 007c 00000000 		.word	btnCount2
 116 0080 00000000 		.word	flag
 117              		.cfi_endproc
 118              	.LFE130:
 120              		.section	.text.EXTI4_IRQHandler,"ax",%progbits
 121              		.align	1
 122              		.global	EXTI4_IRQHandler
 123              		.syntax unified
 124              		.thumb
 125              		.thumb_func
 127              	EXTI4_IRQHandler:
 128              	.LFB131:
  26:Core/Src/interrupt.c **** 
  27:Core/Src/interrupt.c **** void EXTI4_IRQHandler(void)
  28:Core/Src/interrupt.c **** {
 129              		.loc 1 28 1 is_stmt 1 view -0
 130              		.cfi_startproc
 131              		@ args = 0, pretend = 0, frame = 0
 132              		@ frame_needed = 0, uses_anonymous_args = 0
 133              		@ link register save eliminated.
  29:Core/Src/interrupt.c ****     SET_BIT(EXTI->PR, EXTI_PR_PR4);
 134              		.loc 1 29 5 view .LVU27
 135 0000 084A     		ldr	r2, .L8
 136 0002 5369     		ldr	r3, [r2, #20]
 137 0004 43F01003 		orr	r3, r3, #16
 138 0008 5361     		str	r3, [r2, #20]
  30:Core/Src/interrupt.c ****     btnCount1++;
 139              		.loc 1 30 5 view .LVU28
 140              		.loc 1 30 14 is_stmt 0 view .LVU29
 141 000a 074A     		ldr	r2, .L8+4
 142 000c 1378     		ldrb	r3, [r2]	@ zero_extendqisi2
 143 000e 0133     		adds	r3, r3, #1
 144 0010 DBB2     		uxtb	r3, r3
ARM GAS  C:\Users\Asus\AppData\Local\Temp\ccH0qR9M.s 			page 4


 145 0012 1370     		strb	r3, [r2]
  31:Core/Src/interrupt.c ****     flag = !flag;
 146              		.loc 1 31 5 is_stmt 1 view .LVU30
 147              		.loc 1 31 12 is_stmt 0 view .LVU31
 148 0014 054A     		ldr	r2, .L8+8
 149 0016 1378     		ldrb	r3, [r2]	@ zero_extendqisi2
 150 0018 B3FA83F3 		clz	r3, r3
 151 001c 5B09     		lsrs	r3, r3, #5
 152              		.loc 1 31 10 view .LVU32
 153 001e 1370     		strb	r3, [r2]
  32:Core/Src/interrupt.c **** }
 154              		.loc 1 32 1 view .LVU33
 155 0020 7047     		bx	lr
 156              	.L9:
 157 0022 00BF     		.align	2
 158              	.L8:
 159 0024 003C0140 		.word	1073822720
 160 0028 00000000 		.word	btnCount1
 161 002c 00000000 		.word	flag
 162              		.cfi_endproc
 163              	.LFE131:
 165              		.section	.text.SysTick_Handler,"ax",%progbits
 166              		.align	1
 167              		.global	SysTick_Handler
 168              		.syntax unified
 169              		.thumb
 170              		.thumb_func
 172              	SysTick_Handler:
 173              	.LFB132:
  33:Core/Src/interrupt.c **** 
  34:Core/Src/interrupt.c **** void SysTick_Handler(void)
  35:Core/Src/interrupt.c **** {
 174              		.loc 1 35 1 is_stmt 1 view -0
 175              		.cfi_startproc
 176              		@ args = 0, pretend = 0, frame = 0
 177              		@ frame_needed = 0, uses_anonymous_args = 0
 178              		@ link register save eliminated.
  36:Core/Src/interrupt.c ****     if (FLAG_BUTTON)
 179              		.loc 1 36 5 view .LVU35
 180              		.loc 1 36 9 is_stmt 0 view .LVU36
 181 0000 0D4B     		ldr	r3, .L13
 182 0002 1B78     		ldrb	r3, [r3]	@ zero_extendqisi2
 183              		.loc 1 36 8 view .LVU37
 184 0004 2BB1     		cbz	r3, .L11
  37:Core/Src/interrupt.c ****     {
  38:Core/Src/interrupt.c ****         button_delay_tim_count++;
 185              		.loc 1 38 9 is_stmt 1 view .LVU38
 186              		.loc 1 38 31 is_stmt 0 view .LVU39
 187 0006 0D4A     		ldr	r2, .L13+4
 188 0008 1388     		ldrh	r3, [r2]
 189 000a 9BB2     		uxth	r3, r3
 190 000c 0133     		adds	r3, r3, #1
 191 000e 9BB2     		uxth	r3, r3
 192 0010 1380     		strh	r3, [r2]	@ movhi
 193              	.L11:
  39:Core/Src/interrupt.c ****     }
  40:Core/Src/interrupt.c ****     global_systick_tim_count++;
ARM GAS  C:\Users\Asus\AppData\Local\Temp\ccH0qR9M.s 			page 5


 194              		.loc 1 40 5 is_stmt 1 view .LVU40
 195              		.loc 1 40 29 is_stmt 0 view .LVU41
 196 0012 0B4A     		ldr	r2, .L13+8
 197 0014 1368     		ldr	r3, [r2]
 198 0016 0133     		adds	r3, r3, #1
 199 0018 1360     		str	r3, [r2]
  41:Core/Src/interrupt.c ****     second_tim_count++;
 200              		.loc 1 41 5 is_stmt 1 view .LVU42
 201              		.loc 1 41 21 is_stmt 0 view .LVU43
 202 001a 0A4A     		ldr	r2, .L13+12
 203 001c 1388     		ldrh	r3, [r2]
 204 001e 9BB2     		uxth	r3, r3
 205 0020 0133     		adds	r3, r3, #1
 206 0022 9BB2     		uxth	r3, r3
 207 0024 1380     		strh	r3, [r2]	@ movhi
  42:Core/Src/interrupt.c ****     if (FLAG_DELAY)
 208              		.loc 1 42 5 is_stmt 1 view .LVU44
 209              		.loc 1 42 9 is_stmt 0 view .LVU45
 210 0026 084B     		ldr	r3, .L13+16
 211 0028 1B78     		ldrb	r3, [r3]	@ zero_extendqisi2
 212              		.loc 1 42 8 view .LVU46
 213 002a 1BB1     		cbz	r3, .L10
  43:Core/Src/interrupt.c ****     {
  44:Core/Src/interrupt.c ****         delay_count++;
 214              		.loc 1 44 9 is_stmt 1 view .LVU47
 215              		.loc 1 44 20 is_stmt 0 view .LVU48
 216 002c 074A     		ldr	r2, .L13+20
 217 002e 1368     		ldr	r3, [r2]
 218 0030 0133     		adds	r3, r3, #1
 219 0032 1360     		str	r3, [r2]
 220              	.L10:
  45:Core/Src/interrupt.c ****     }
  46:Core/Src/interrupt.c **** }
 221              		.loc 1 46 1 view .LVU49
 222 0034 7047     		bx	lr
 223              	.L14:
 224 0036 00BF     		.align	2
 225              	.L13:
 226 0038 00000000 		.word	FLAG_BUTTON
 227 003c 00000000 		.word	button_delay_tim_count
 228 0040 00000000 		.word	global_systick_tim_count
 229 0044 00000000 		.word	second_tim_count
 230 0048 00000000 		.word	FLAG_DELAY
 231 004c 00000000 		.word	delay_count
 232              		.cfi_endproc
 233              	.LFE132:
 235              		.section	.text.delay,"ax",%progbits
 236              		.align	1
 237              		.global	delay
 238              		.syntax unified
 239              		.thumb
 240              		.thumb_func
 242              	delay:
 243              	.LVL0:
 244              	.LFB133:
  47:Core/Src/interrupt.c **** 
  48:Core/Src/interrupt.c **** void delay(uint32_t del)
ARM GAS  C:\Users\Asus\AppData\Local\Temp\ccH0qR9M.s 			page 6


  49:Core/Src/interrupt.c **** {
 245              		.loc 1 49 1 is_stmt 1 view -0
 246              		.cfi_startproc
 247              		@ args = 0, pretend = 0, frame = 0
 248              		@ frame_needed = 0, uses_anonymous_args = 0
 249              		@ link register save eliminated.
  50:Core/Src/interrupt.c ****     FLAG_DELAY = 1;
 250              		.loc 1 50 5 view .LVU51
 251              		.loc 1 50 16 is_stmt 0 view .LVU52
 252 0000 064B     		ldr	r3, .L17
 253 0002 0122     		movs	r2, #1
 254 0004 1A70     		strb	r2, [r3]
  51:Core/Src/interrupt.c ****     while (del >= delay_count)
 255              		.loc 1 51 5 is_stmt 1 view .LVU53
 256              	.L16:
  52:Core/Src/interrupt.c ****     {
  53:Core/Src/interrupt.c ****     }
 257              		.loc 1 53 5 view .LVU54
  51:Core/Src/interrupt.c ****     while (del >= delay_count)
 258              		.loc 1 51 16 discriminator 1 view .LVU55
 259 0006 064B     		ldr	r3, .L17+4
 260 0008 1B68     		ldr	r3, [r3]
 261 000a 8342     		cmp	r3, r0
 262 000c FBD9     		bls	.L16
  54:Core/Src/interrupt.c ****     delay_count = 0;
 263              		.loc 1 54 5 view .LVU56
 264              		.loc 1 54 17 is_stmt 0 view .LVU57
 265 000e 0023     		movs	r3, #0
 266 0010 034A     		ldr	r2, .L17+4
 267 0012 1360     		str	r3, [r2]
  55:Core/Src/interrupt.c ****     FLAG_DELAY = 0;
 268              		.loc 1 55 5 is_stmt 1 view .LVU58
 269              		.loc 1 55 16 is_stmt 0 view .LVU59
 270 0014 014A     		ldr	r2, .L17
 271 0016 1370     		strb	r3, [r2]
  56:Core/Src/interrupt.c **** }...
 272              		.loc 1 56 1 view .LVU60
 273 0018 7047     		bx	lr
 274              	.L18:
 275 001a 00BF     		.align	2
 276              	.L17:
 277 001c 00000000 		.word	FLAG_DELAY
 278 0020 00000000 		.word	delay_count
 279              		.cfi_endproc
 280              	.LFE133:
 282              		.global	delay_count
 283              		.section	.bss.delay_count,"aw",%nobits
 284              		.align	2
 287              	delay_count:
 288 0000 00000000 		.space	4
 289              		.global	FLAG_BUTTON
 290              		.section	.bss.FLAG_BUTTON,"aw",%nobits
 293              	FLAG_BUTTON:
 294 0000 00       		.space	1
 295              		.global	FLAG_DELAY
 296              		.section	.bss.FLAG_DELAY,"aw",%nobits
 299              	FLAG_DELAY:
ARM GAS  C:\Users\Asus\AppData\Local\Temp\ccH0qR9M.s 			page 7


 300 0000 00       		.space	1
 301              		.global	last_state
 302              		.section	.bss.last_state,"aw",%nobits
 305              	last_state:
 306 0000 00       		.space	1
 307              		.text
 308              	.Letext0:
 309              		.file 2 "C:/Users/Asus/scoop/apps/gcc-arm-none-eabi/current/arm-none-eabi/include/machine/_default
 310              		.file 3 "C:/Users/Asus/scoop/apps/gcc-arm-none-eabi/current/arm-none-eabi/include/sys/_stdint.h"
 311              		.file 4 "CMSIS/Devices/STM32F4xx/Inc/STM32F429ZI/stm32f429xx.h"
 312              		.file 5 "Core/Inc/interrupt.h"
ARM GAS  C:\Users\Asus\AppData\Local\Temp\ccH0qR9M.s 			page 8

