ARM GAS  C:\Users\Asus\AppData\Local\Temp\ccm7d6pc.s 			page 1


   1              		.cpu cortex-m4
   2              		.arch armv7e-m
   3              		.fpu fpv4-sp-d16
   4              		.eabi_attribute 27, 1
   5              		.eabi_attribute 28, 1
   6              		.eabi_attribute 20, 1
   7              		.eabi_attribute 21, 1
   8              		.eabi_attribute 23, 3
   9              		.eabi_attribute 24, 1
  10              		.eabi_attribute 25, 1
  11              		.eabi_attribute 26, 1
  12              		.eabi_attribute 30, 1
  13              		.eabi_attribute 34, 1
  14              		.eabi_attribute 18, 4
  15              		.file	"interrupt.c"
  16              		.text
  17              	.Ltext0:
  18              		.cfi_sections	.debug_frame
  19              		.file 1 "Core/Src/interrupt.c"
  20              		.section	.text.SysTick_Handler,"ax",%progbits
  21              		.align	1
  22              		.global	SysTick_Handler
  23              		.syntax unified
  24              		.thumb
  25              		.thumb_func
  27              	SysTick_Handler:
  28              	.LFB130:
   1:Core/Src/interrupt.c **** #include "interrupt.h"
   2:Core/Src/interrupt.c **** 
   3:Core/Src/interrupt.c **** uint16_t TickDelayCount, miiliseconds;
   4:Core/Src/interrupt.c **** uint8_t FLAG_Delay;
   5:Core/Src/interrupt.c **** 
   6:Core/Src/interrupt.c **** void SysTick_Handler(void)
   7:Core/Src/interrupt.c **** {
  29              		.loc 1 7 1 view -0
  30              		.cfi_startproc
  31              		@ args = 0, pretend = 0, frame = 0
  32              		@ frame_needed = 0, uses_anonymous_args = 0
  33              		@ link register save eliminated.
   8:Core/Src/interrupt.c ****     GlobalTickCount++;
  34              		.loc 1 8 5 view .LVU1
  35              		.loc 1 8 20 is_stmt 0 view .LVU2
  36 0000 054A     		ldr	r2, .L3
  37 0002 1388     		ldrh	r3, [r2]
  38 0004 0133     		adds	r3, r3, #1
  39 0006 1380     		strh	r3, [r2]	@ movhi
   9:Core/Src/interrupt.c ****     if (FLAG_Delay)
  40              		.loc 1 9 5 is_stmt 1 view .LVU3
  41              		.loc 1 9 9 is_stmt 0 view .LVU4
  42 0008 044B     		ldr	r3, .L3+4
  43 000a 1B78     		ldrb	r3, [r3]	@ zero_extendqisi2
  44              		.loc 1 9 8 view .LVU5
  45 000c 1BB1     		cbz	r3, .L1
  10:Core/Src/interrupt.c ****         TickDelayCount++;
  46              		.loc 1 10 9 is_stmt 1 view .LVU6
  47              		.loc 1 10 23 is_stmt 0 view .LVU7
  48 000e 044A     		ldr	r2, .L3+8
ARM GAS  C:\Users\Asus\AppData\Local\Temp\ccm7d6pc.s 			page 2


  49 0010 1388     		ldrh	r3, [r2]
  50 0012 0133     		adds	r3, r3, #1
  51 0014 1380     		strh	r3, [r2]	@ movhi
  52              	.L1:
  11:Core/Src/interrupt.c **** }
  53              		.loc 1 11 1 view .LVU8
  54 0016 7047     		bx	lr
  55              	.L4:
  56              		.align	2
  57              	.L3:
  58 0018 00000000 		.word	GlobalTickCount
  59 001c 00000000 		.word	FLAG_Delay
  60 0020 00000000 		.word	TickDelayCount
  61              		.cfi_endproc
  62              	.LFE130:
  64              		.section	.text.ADC_IRQHandler,"ax",%progbits
  65              		.align	1
  66              		.global	ADC_IRQHandler
  67              		.syntax unified
  68              		.thumb
  69              		.thumb_func
  71              	ADC_IRQHandler:
  72              	.LFB131:
  12:Core/Src/interrupt.c **** 
  13:Core/Src/interrupt.c **** void ADC_IRQHandler(void){
  73              		.loc 1 13 26 is_stmt 1 view -0
  74              		.cfi_startproc
  75              		@ args = 0, pretend = 0, frame = 0
  76              		@ frame_needed = 0, uses_anonymous_args = 0
  77              		@ link register save eliminated.
  14:Core/Src/interrupt.c ****     adcInter = ADC1->DR;
  78              		.loc 1 14 5 view .LVU10
  79              		.loc 1 14 20 is_stmt 0 view .LVU11
  80 0000 024B     		ldr	r3, .L6
  81 0002 DB6C     		ldr	r3, [r3, #76]
  82              		.loc 1 14 14 view .LVU12
  83 0004 9BB2     		uxth	r3, r3
  84 0006 024A     		ldr	r2, .L6+4
  85 0008 1380     		strh	r3, [r2]	@ movhi
  15:Core/Src/interrupt.c ****     // SET_BIT(ADC1->CR2, ADC_CR2_SWSTART);
  16:Core/Src/interrupt.c **** }
  86              		.loc 1 16 1 view .LVU13
  87 000a 7047     		bx	lr
  88              	.L7:
  89              		.align	2
  90              	.L6:
  91 000c 00200140 		.word	1073815552
  92 0010 00000000 		.word	adcInter
  93              		.cfi_endproc
  94              	.LFE131:
  96              		.section	.text.DMA2_Stream0_IRQHandler,"ax",%progbits
  97              		.align	1
  98              		.global	DMA2_Stream0_IRQHandler
  99              		.syntax unified
 100              		.thumb
 101              		.thumb_func
 103              	DMA2_Stream0_IRQHandler:
ARM GAS  C:\Users\Asus\AppData\Local\Temp\ccm7d6pc.s 			page 3


 104              	.LFB132:
  17:Core/Src/interrupt.c **** 
  18:Core/Src/interrupt.c **** void DMA2_Stream0_IRQHandler(void){
 105              		.loc 1 18 35 is_stmt 1 view -0
 106              		.cfi_startproc
 107              		@ args = 0, pretend = 0, frame = 0
 108              		@ frame_needed = 0, uses_anonymous_args = 0
 109              		@ link register save eliminated.
  19:Core/Src/interrupt.c ****     if (READ_BIT(DMA2->LISR, DMA_LISR_TCIF0))
 110              		.loc 1 19 5 view .LVU15
 111              		.loc 1 19 9 is_stmt 0 view .LVU16
 112 0000 0F4B     		ldr	r3, .L11
 113 0002 1B68     		ldr	r3, [r3]
 114              		.loc 1 19 8 view .LVU17
 115 0004 13F0200F 		tst	r3, #32
 116 0008 0AD0     		beq	.L9
  20:Core/Src/interrupt.c ****     {
  21:Core/Src/interrupt.c ****         SET_BIT(DMA2->LIFCR, DMA_LIFCR_CTCIF0); // Очистка флага прерывания
 117              		.loc 1 21 9 is_stmt 1 view .LVU18
 118 000a 0D4A     		ldr	r2, .L11
 119 000c 9368     		ldr	r3, [r2, #8]
 120 000e 43F02003 		orr	r3, r3, #32
 121 0012 9360     		str	r3, [r2, #8]
  22:Core/Src/interrupt.c ****         adc_conversion_complete = 1; // Установка флага готовности данн
 122              		.loc 1 22 9 view .LVU19
 123              		.loc 1 22 33 is_stmt 0 view .LVU20
 124 0014 0B4B     		ldr	r3, .L11+4
 125 0016 0122     		movs	r2, #1
 126 0018 1A70     		strb	r2, [r3]
  23:Core/Src/interrupt.c ****         GPIOA->ODR ^= (0 << 6); // Переключение бита 6 порта A
 127              		.loc 1 23 9 is_stmt 1 view .LVU21
 128              		.loc 1 23 14 is_stmt 0 view .LVU22
 129 001a 0B4B     		ldr	r3, .L11+8
 130 001c 5A69     		ldr	r2, [r3, #20]
 131              		.loc 1 23 20 view .LVU23
 132 001e 5A61     		str	r2, [r3, #20]
 133              	.L9:
  24:Core/Src/interrupt.c ****     }
  25:Core/Src/interrupt.c ****     // Диагностика: проверка переполнения АЦП
  26:Core/Src/interrupt.c ****     if (ADC1->SR & ADC_SR_OVR) {
 134              		.loc 1 26 5 is_stmt 1 view .LVU24
 135              		.loc 1 26 13 is_stmt 0 view .LVU25
 136 0020 0A4B     		ldr	r3, .L11+12
 137 0022 1B68     		ldr	r3, [r3]
 138              		.loc 1 26 8 view .LVU26
 139 0024 13F0200F 		tst	r3, #32
 140 0028 09D0     		beq	.L8
  27:Core/Src/interrupt.c ****         adc_overrun_count++;
 141              		.loc 1 27 9 is_stmt 1 view .LVU27
 142              		.loc 1 27 26 is_stmt 0 view .LVU28
 143 002a 094A     		ldr	r2, .L11+16
 144 002c 1378     		ldrb	r3, [r2]	@ zero_extendqisi2
 145 002e 0133     		adds	r3, r3, #1
 146 0030 DBB2     		uxtb	r3, r3
 147 0032 1370     		strb	r3, [r2]
  28:Core/Src/interrupt.c ****         ADC1->SR &= ~ADC_SR_OVR; // Сбрасываем флаг
 148              		.loc 1 28 9 is_stmt 1 view .LVU29
ARM GAS  C:\Users\Asus\AppData\Local\Temp\ccm7d6pc.s 			page 4


 149              		.loc 1 28 13 is_stmt 0 view .LVU30
 150 0034 054A     		ldr	r2, .L11+12
 151 0036 1368     		ldr	r3, [r2]
 152              		.loc 1 28 18 view .LVU31
 153 0038 23F02003 		bic	r3, r3, #32
 154 003c 1360     		str	r3, [r2]
 155              	.L8:
  29:Core/Src/interrupt.c ****         // Зажжем красный светодиод, если есть
  30:Core/Src/interrupt.c ****         // GPIOA->ODR ^= (0 << 6); // Переключение бита 6 порта A
  31:Core/Src/interrupt.c ****     }
  32:Core/Src/interrupt.c **** }
 156              		.loc 1 32 1 view .LVU32
 157 003e 7047     		bx	lr
 158              	.L12:
 159              		.align	2
 160              	.L11:
 161 0040 00640240 		.word	1073898496
 162 0044 00000000 		.word	adc_conversion_complete
 163 0048 00000240 		.word	1073872896
 164 004c 00200140 		.word	1073815552
 165 0050 00000000 		.word	adc_overrun_count
 166              		.cfi_endproc
 167              	.LFE132:
 169              		.section	.text.TIM3_IRQHandler,"ax",%progbits
 170              		.align	1
 171              		.global	TIM3_IRQHandler
 172              		.syntax unified
 173              		.thumb
 174              		.thumb_func
 176              	TIM3_IRQHandler:
 177              	.LFB133:
  33:Core/Src/interrupt.c **** 
  34:Core/Src/interrupt.c **** void TIM3_IRQHandler(void){
 178              		.loc 1 34 27 is_stmt 1 view -0
 179              		.cfi_startproc
 180              		@ args = 0, pretend = 0, frame = 0
 181              		@ frame_needed = 0, uses_anonymous_args = 0
 182              		@ link register save eliminated.
  35:Core/Src/interrupt.c ****     if (READ_BIT(TIM3->SR, TIM_SR_UIF))
 183              		.loc 1 35 5 view .LVU34
 184              		.loc 1 35 9 is_stmt 0 view .LVU35
 185 0000 0C4B     		ldr	r3, .L15
 186 0002 1B69     		ldr	r3, [r3, #16]
 187              		.loc 1 35 8 view .LVU36
 188 0004 13F0010F 		tst	r3, #1
 189 0008 13D0     		beq	.L13
  36:Core/Src/interrupt.c ****     {
  37:Core/Src/interrupt.c ****         TIM3->SR &= ~TIM_SR_UIF; // Очистка флага прерывания
 190              		.loc 1 37 9 is_stmt 1 view .LVU37
 191              		.loc 1 37 13 is_stmt 0 view .LVU38
 192 000a 0A4A     		ldr	r2, .L15
 193 000c 1369     		ldr	r3, [r2, #16]
 194              		.loc 1 37 18 view .LVU39
 195 000e 23F00103 		bic	r3, r3, #1
 196 0012 1361     		str	r3, [r2, #16]
  38:Core/Src/interrupt.c ****         TickDelayCount++;
 197              		.loc 1 38 9 is_stmt 1 view .LVU40
ARM GAS  C:\Users\Asus\AppData\Local\Temp\ccm7d6pc.s 			page 5


 198              		.loc 1 38 23 is_stmt 0 view .LVU41
 199 0014 084A     		ldr	r2, .L15+4
 200 0016 1388     		ldrh	r3, [r2]
 201 0018 0133     		adds	r3, r3, #1
 202 001a 9BB2     		uxth	r3, r3
 203 001c 1380     		strh	r3, [r2]	@ movhi
  39:Core/Src/interrupt.c ****         if(TickDelayCount >= 1000){
 204              		.loc 1 39 9 is_stmt 1 view .LVU42
 205              		.loc 1 39 11 is_stmt 0 view .LVU43
 206 001e B3F57A7F 		cmp	r3, #1000
 207 0022 06D3     		bcc	.L13
  40:Core/Src/interrupt.c ****             TickDelayCount = 0;
 208              		.loc 1 40 13 is_stmt 1 view .LVU44
 209              		.loc 1 40 28 is_stmt 0 view .LVU45
 210 0024 1346     		mov	r3, r2
 211 0026 0022     		movs	r2, #0
 212 0028 1A80     		strh	r2, [r3]	@ movhi
  41:Core/Src/interrupt.c ****             miiliseconds++;
 213              		.loc 1 41 13 is_stmt 1 view .LVU46
 214              		.loc 1 41 25 is_stmt 0 view .LVU47
 215 002a 044A     		ldr	r2, .L15+8
 216 002c 1388     		ldrh	r3, [r2]
 217 002e 0133     		adds	r3, r3, #1
 218 0030 1380     		strh	r3, [r2]	@ movhi
 219              	.L13:
  42:Core/Src/interrupt.c ****         }
  43:Core/Src/interrupt.c ****     }
  44:Core/Src/interrupt.c **** }
 220              		.loc 1 44 1 view .LVU48
 221 0032 7047     		bx	lr
 222              	.L16:
 223              		.align	2
 224              	.L15:
 225 0034 00040040 		.word	1073742848
 226 0038 00000000 		.word	TickDelayCount
 227 003c 00000000 		.word	miiliseconds
 228              		.cfi_endproc
 229              	.LFE133:
 231              		.section	.text.delay,"ax",%progbits
 232              		.align	1
 233              		.global	delay
 234              		.syntax unified
 235              		.thumb
 236              		.thumb_func
 238              	delay:
 239              	.LVL0:
 240              	.LFB134:
  45:Core/Src/interrupt.c **** 
  46:Core/Src/interrupt.c **** void delay(int del)
  47:Core/Src/interrupt.c **** {
 241              		.loc 1 47 1 is_stmt 1 view -0
 242              		.cfi_startproc
 243              		@ args = 0, pretend = 0, frame = 0
 244              		@ frame_needed = 0, uses_anonymous_args = 0
 245              		@ link register save eliminated.
  48:Core/Src/interrupt.c ****     FLAG_Delay = 1;
 246              		.loc 1 48 5 view .LVU50
ARM GAS  C:\Users\Asus\AppData\Local\Temp\ccm7d6pc.s 			page 6


 247              		.loc 1 48 16 is_stmt 0 view .LVU51
 248 0000 064B     		ldr	r3, .L19
 249 0002 0122     		movs	r2, #1
 250 0004 1A70     		strb	r2, [r3]
  49:Core/Src/interrupt.c ****     while (TickDelayCount < del)
 251              		.loc 1 49 5 is_stmt 1 view .LVU52
 252              	.L18:
  50:Core/Src/interrupt.c ****     {
  51:Core/Src/interrupt.c ****     }
 253              		.loc 1 51 5 view .LVU53
  49:Core/Src/interrupt.c ****     while (TickDelayCount < del)
 254              		.loc 1 49 27 discriminator 1 view .LVU54
 255 0006 064B     		ldr	r3, .L19+4
 256 0008 1B88     		ldrh	r3, [r3]
 257 000a 8342     		cmp	r3, r0
 258 000c FBDB     		blt	.L18
  52:Core/Src/interrupt.c ****     TickDelayCount = 0;
 259              		.loc 1 52 5 view .LVU55
 260              		.loc 1 52 20 is_stmt 0 view .LVU56
 261 000e 0023     		movs	r3, #0
 262 0010 034A     		ldr	r2, .L19+4
 263 0012 1380     		strh	r3, [r2]	@ movhi
  53:Core/Src/interrupt.c ****     FLAG_Delay = 0;
 264              		.loc 1 53 5 is_stmt 1 view .LVU57
 265              		.loc 1 53 16 is_stmt 0 view .LVU58
 266 0014 014A     		ldr	r2, .L19
 267 0016 1370     		strb	r3, [r2]
  54:Core/Src/interrupt.c **** }
 268              		.loc 1 54 1 view .LVU59
 269 0018 7047     		bx	lr
 270              	.L20:
 271 001a 00BF     		.align	2
 272              	.L19:
 273 001c 00000000 		.word	FLAG_Delay
 274 0020 00000000 		.word	TickDelayCount
 275              		.cfi_endproc
 276              	.LFE134:
 278              		.global	FLAG_Delay
 279              		.section	.bss.FLAG_Delay,"aw",%nobits
 282              	FLAG_Delay:
 283 0000 00       		.space	1
 284              		.global	miiliseconds
 285              		.section	.bss.miiliseconds,"aw",%nobits
 286              		.align	1
 289              	miiliseconds:
 290 0000 0000     		.space	2
 291              		.global	TickDelayCount
 292              		.section	.bss.TickDelayCount,"aw",%nobits
 293              		.align	1
 296              	TickDelayCount:
 297 0000 0000     		.space	2
 298              		.text
 299              	.Letext0:
 300              		.file 2 "C:/Programm/tools/xpack-arm-none-eabi-gcc-14.2.1-1.1/arm-none-eabi/include/machine/_defau
 301              		.file 3 "C:/Programm/tools/xpack-arm-none-eabi-gcc-14.2.1-1.1/arm-none-eabi/include/sys/_stdint.h"
 302              		.file 4 "CMSIS/Devices/STM32F4xx/Inc/STM32F407xx/stm32f407xx.h"
 303              		.file 5 "Core/Inc/init.h"
ARM GAS  C:\Users\Asus\AppData\Local\Temp\ccm7d6pc.s 			page 7


 304              		.file 6 "Core/Inc/interrupt.h"
ARM GAS  C:\Users\Asus\AppData\Local\Temp\ccm7d6pc.s 			page 8

