ARM GAS  C:\Users\Asus\AppData\Local\Temp\cc9zYaHy.s 			page 1


   1              		.cpu cortex-m4
   2              		.arch armv7e-m
   3              		.fpu fpv4-sp-d16
   4              		.eabi_attribute 27, 1
   5              		.eabi_attribute 28, 1
   6              		.eabi_attribute 20, 1
   7              		.eabi_attribute 21, 1
   8              		.eabi_attribute 23, 3
   9              		.eabi_attribute 24, 1
  10              		.eabi_attribute 25, 1
  11              		.eabi_attribute 26, 1
  12              		.eabi_attribute 30, 1
  13              		.eabi_attribute 34, 1
  14              		.eabi_attribute 18, 4
  15              		.file	"main.c"
  16              		.text
  17              	.Ltext0:
  18              		.cfi_sections	.debug_frame
  19              		.file 1 "Core/Src/main.c"
  20              		.section	.text.ADC_Read_Inject,"ax",%progbits
  21              		.align	1
  22              		.global	ADC_Read_Inject
  23              		.syntax unified
  24              		.thumb
  25              		.thumb_func
  27              	ADC_Read_Inject:
  28              	.LVL0:
  29              	.LFB131:
   1:Core/Src/main.c **** #include "interrupt.h"
   2:Core/Src/main.c **** 
   3:Core/Src/main.c **** uint16_t ADC_Read_Inject(uint8_t channel);
   4:Core/Src/main.c **** uint16_t ADC_Read_Polling(uint8_t channel);
   5:Core/Src/main.c **** 
   6:Core/Src/main.c **** uint16_t adcBuf[3], adcInter;
   7:Core/Src/main.c **** uint16_t GlobalTickCount, MotorTickCount, potentiometr, adcTS;
   8:Core/Src/main.c **** uint8_t BtnNum;
   9:Core/Src/main.c **** float FLAG_Revolution, calculatePulseARR, Temperature, Vsense;
  10:Core/Src/main.c **** 
  11:Core/Src/main.c **** int main(void)
  12:Core/Src/main.c **** {
  13:Core/Src/main.c ****     RCC_Init();
  14:Core/Src/main.c ****     ITR_Init();
  15:Core/Src/main.c ****     GPIO_Init();
  16:Core/Src/main.c ****     SysTick_Init();
  17:Core/Src/main.c ****     TIM_PWM_Init();
  18:Core/Src/main.c ****     ADC_Init_Polling();
  19:Core/Src/main.c ****     // TIM_ENCODER_Init();
  20:Core/Src/main.c ****     // Enc_Trig_Init();
  21:Core/Src/main.c **** 
  22:Core/Src/main.c ****     // SET_BIT(ADC1->CR2, ADC_CR2_JSWSTART);
  23:Core/Src/main.c ****     // SET_BIT(ADC1->CR2, ADC_CR2_SWSTART);
  24:Core/Src/main.c **** 
  25:Core/Src/main.c ****     while (1)
  26:Core/Src/main.c ****     {
  27:Core/Src/main.c ****         // adcTS = ADC_Read_Polling(0);
  28:Core/Src/main.c ****         adcBuf[0] = ADC_Read_Polling(0);
  29:Core/Src/main.c ****         // adcBuf[0] = READ_REG(ADC1->DR);
ARM GAS  C:\Users\Asus\AppData\Local\Temp\cc9zYaHy.s 			page 2


  30:Core/Src/main.c ****         // for(int i = 0; i < 10000000; i++);
  31:Core/Src/main.c ****         // adcTS = ADC_Read_Polling(1);
  32:Core/Src/main.c ****         // adcBuf[1] = ADC_Read_Polling(1);
  33:Core/Src/main.c ****         // for(int i = 0; i < 10000000; i++);
  34:Core/Src/main.c ****         // adcTS = ADC_Read_Polling(16);
  35:Core/Src/main.c ****         // adcBuf[2] = ADC_Read_Polling(16);
  36:Core/Src/main.c ****         // for(int i = 0; i < 10000000; i++);
  37:Core/Src/main.c ****         // adcBuf[3] = ADC_Read_Inject(2);
  38:Core/Src/main.c ****         // adcBuf[3] = READ_REG(ADC1->JDR1);
  39:Core/Src/main.c ****         // for(int i = 0; i < 10000000; i++);
  40:Core/Src/main.c ****         Vsense = (3.1 * adcBuf[2]) / 4095U;
  41:Core/Src/main.c ****         TIM3->CCR2 = (8400 * adcBuf[0]) / 4095; 
  42:Core/Src/main.c ****         Temperature = ((0.76 - Vsense) / 2.5) + 25;
  43:Core/Src/main.c ****     }
  44:Core/Src/main.c **** }
  45:Core/Src/main.c **** 
  46:Core/Src/main.c **** uint16_t ADC_Read_Inject(uint8_t channel){
  30              		.loc 1 46 42 view -0
  31              		.cfi_startproc
  32              		@ args = 0, pretend = 0, frame = 0
  33              		@ frame_needed = 0, uses_anonymous_args = 0
  34              		@ link register save eliminated.
  47:Core/Src/main.c ****     MODIFY_REG(ADC1->JSQR, ADC_JSQR_JSQ4, (channel << ADC_JSQR_JSQ4_Pos));
  35              		.loc 1 47 5 view .LVU1
  36 0000 094A     		ldr	r2, .L3
  37 0002 936B     		ldr	r3, [r2, #56]
  38 0004 23F47823 		bic	r3, r3, #1015808
  39 0008 43EAC033 		orr	r3, r3, r0, lsl #15
  40 000c 9363     		str	r3, [r2, #56]
  48:Core/Src/main.c **** 
  49:Core/Src/main.c ****     SET_BIT(ADC1->CR2, ADC_CR2_JSWSTART); 
  41              		.loc 1 49 5 view .LVU2
  42 000e 9368     		ldr	r3, [r2, #8]
  43 0010 43F48003 		orr	r3, r3, #4194304
  44 0014 9360     		str	r3, [r2, #8]
  50:Core/Src/main.c **** 
  51:Core/Src/main.c ****     while(READ_BIT(ADC1->SR, ADC_SR_JEOC) == 0);
  45              		.loc 1 51 5 view .LVU3
  46              	.L2:
  47              		.loc 1 51 43 discriminator 1 view .LVU4
  48              		.loc 1 51 11 is_stmt 0 discriminator 1 view .LVU5
  49 0016 044B     		ldr	r3, .L3
  50 0018 1B68     		ldr	r3, [r3]
  51              		.loc 1 51 43 discriminator 1 view .LVU6
  52 001a 13F0040F 		tst	r3, #4
  53 001e FAD0     		beq	.L2
  52:Core/Src/main.c **** 
  53:Core/Src/main.c ****     return READ_REG(ADC1->JDR1);
  54              		.loc 1 53 5 is_stmt 1 view .LVU7
  55              		.loc 1 53 12 is_stmt 0 view .LVU8
  56 0020 014B     		ldr	r3, .L3
  57 0022 D86B     		ldr	r0, [r3, #60]
  58              	.LVL1:
  54:Core/Src/main.c **** }
  59              		.loc 1 54 1 view .LVU9
  60 0024 80B2     		uxth	r0, r0
  61 0026 7047     		bx	lr
ARM GAS  C:\Users\Asus\AppData\Local\Temp\cc9zYaHy.s 			page 3


  62              	.L4:
  63              		.align	2
  64              	.L3:
  65 0028 00200140 		.word	1073815552
  66              		.cfi_endproc
  67              	.LFE131:
  69              		.section	.text.ADC_Read_Polling,"ax",%progbits
  70              		.align	1
  71              		.global	ADC_Read_Polling
  72              		.syntax unified
  73              		.thumb
  74              		.thumb_func
  76              	ADC_Read_Polling:
  77              	.LVL2:
  78              	.LFB132:
  55:Core/Src/main.c **** 
  56:Core/Src/main.c **** uint16_t ADC_Read_Polling(uint8_t channel){
  79              		.loc 1 56 43 is_stmt 1 view -0
  80              		.cfi_startproc
  81              		@ args = 0, pretend = 0, frame = 0
  82              		@ frame_needed = 0, uses_anonymous_args = 0
  83              		@ link register save eliminated.
  57:Core/Src/main.c ****     MODIFY_REG(ADC1->SQR3, ADC_SQR3_SQ1, (channel << ADC_SQR3_SQ1_Pos));
  84              		.loc 1 57 5 view .LVU11
  85 0000 094A     		ldr	r2, .L7
  86 0002 536B     		ldr	r3, [r2, #52]
  87 0004 23F01F03 		bic	r3, r3, #31
  88 0008 0343     		orrs	r3, r3, r0
  89 000a 5363     		str	r3, [r2, #52]
  58:Core/Src/main.c ****     
  59:Core/Src/main.c ****     SET_BIT(ADC1->CR2, ADC_CR2_SWSTART); 
  90              		.loc 1 59 5 view .LVU12
  91 000c 9368     		ldr	r3, [r2, #8]
  92 000e 43F08043 		orr	r3, r3, #1073741824
  93 0012 9360     		str	r3, [r2, #8]
  60:Core/Src/main.c **** 
  61:Core/Src/main.c ****     while(READ_BIT(ADC1->SR, ADC_SR_EOC) == 0);
  94              		.loc 1 61 5 view .LVU13
  95              	.L6:
  96              		.loc 1 61 42 discriminator 1 view .LVU14
  97              		.loc 1 61 11 is_stmt 0 discriminator 1 view .LVU15
  98 0014 044B     		ldr	r3, .L7
  99 0016 1B68     		ldr	r3, [r3]
 100              		.loc 1 61 42 discriminator 1 view .LVU16
 101 0018 13F0020F 		tst	r3, #2
 102 001c FAD0     		beq	.L6
  62:Core/Src/main.c **** 
  63:Core/Src/main.c ****     return READ_REG(ADC1->DR);
 103              		.loc 1 63 5 is_stmt 1 view .LVU17
 104              		.loc 1 63 12 is_stmt 0 view .LVU18
 105 001e 024B     		ldr	r3, .L7
 106 0020 D86C     		ldr	r0, [r3, #76]
 107              	.LVL3:
  64:Core/Src/main.c **** }...
 108              		.loc 1 64 1 view .LVU19
 109 0022 80B2     		uxth	r0, r0
 110 0024 7047     		bx	lr
ARM GAS  C:\Users\Asus\AppData\Local\Temp\cc9zYaHy.s 			page 4


 111              	.L8:
 112 0026 00BF     		.align	2
 113              	.L7:
 114 0028 00200140 		.word	1073815552
 115              		.cfi_endproc
 116              	.LFE132:
 118              		.section	.text.main,"ax",%progbits
 119              		.align	1
 120              		.global	main
 121              		.syntax unified
 122              		.thumb
 123              		.thumb_func
 125              	main:
 126              	.LFB130:
  12:Core/Src/main.c **** {
 127              		.loc 1 12 1 is_stmt 1 view -0
 128              		.cfi_startproc
 129              		@ Volatile: function does not return.
 130              		@ args = 0, pretend = 0, frame = 0
 131              		@ frame_needed = 0, uses_anonymous_args = 0
 132 0000 08B5     		push	{r3, lr}
 133              	.LCFI0:
 134              		.cfi_def_cfa_offset 8
 135              		.cfi_offset 3, -8
 136              		.cfi_offset 14, -4
  13:Core/Src/main.c ****     RCC_Init();
 137              		.loc 1 13 5 view .LVU21
 138 0002 FFF7FEFF 		bl	RCC_Init
 139              	.LVL4:
  14:Core/Src/main.c ****     ITR_Init();
 140              		.loc 1 14 5 view .LVU22
 141 0006 FFF7FEFF 		bl	ITR_Init
 142              	.LVL5:
  15:Core/Src/main.c ****     GPIO_Init();
 143              		.loc 1 15 5 view .LVU23
 144 000a FFF7FEFF 		bl	GPIO_Init
 145              	.LVL6:
  16:Core/Src/main.c ****     SysTick_Init();
 146              		.loc 1 16 5 view .LVU24
 147 000e FFF7FEFF 		bl	SysTick_Init
 148              	.LVL7:
  17:Core/Src/main.c ****     TIM_PWM_Init();
 149              		.loc 1 17 5 view .LVU25
 150 0012 FFF7FEFF 		bl	TIM_PWM_Init
 151              	.LVL8:
  18:Core/Src/main.c ****     ADC_Init_Polling();
 152              		.loc 1 18 5 view .LVU26
 153 0016 FFF7FEFF 		bl	ADC_Init_Polling
 154              	.LVL9:
 155              	.L10:
  25:Core/Src/main.c ****     while (1)
 156              		.loc 1 25 5 view .LVU27
  28:Core/Src/main.c ****         adcBuf[0] = ADC_Read_Polling(0);
 157              		.loc 1 28 9 view .LVU28
  28:Core/Src/main.c ****         adcBuf[0] = ADC_Read_Polling(0);
 158              		.loc 1 28 21 is_stmt 0 view .LVU29
 159 001a 0020     		movs	r0, #0
ARM GAS  C:\Users\Asus\AppData\Local\Temp\cc9zYaHy.s 			page 5


 160 001c FFF7FEFF 		bl	ADC_Read_Polling
 161              	.LVL10:
 162 0020 0446     		mov	r4, r0
  28:Core/Src/main.c ****         adcBuf[0] = ADC_Read_Polling(0);
 163              		.loc 1 28 19 discriminator 1 view .LVU30
 164 0022 214B     		ldr	r3, .L12+24
 165 0024 1880     		strh	r0, [r3]	@ movhi
  40:Core/Src/main.c ****         Vsense = (3.1 * adcBuf[2]) / 4095U;
 166              		.loc 1 40 9 is_stmt 1 view .LVU31
  40:Core/Src/main.c ****         Vsense = (3.1 * adcBuf[2]) / 4095U;
 167              		.loc 1 40 23 is_stmt 0 view .LVU32
 168 0026 9888     		ldrh	r0, [r3, #4]
 169 0028 FFF7FEFF 		bl	__aeabi_i2d
 170              	.LVL11:
 171 002c 18A3     		adr	r3, .L12
 172 002e D3E90023 		ldrd	r2, [r3]
 173 0032 FFF7FEFF 		bl	__aeabi_dmul
 174              	.LVL12:
  40:Core/Src/main.c ****         Vsense = (3.1 * adcBuf[2]) / 4095U;
 175              		.loc 1 40 36 view .LVU33
 176 0036 18A3     		adr	r3, .L12+8
 177 0038 D3E90023 		ldrd	r2, [r3]
 178 003c FFF7FEFF 		bl	__aeabi_ddiv
 179              	.LVL13:
 180 0040 FFF7FEFF 		bl	__aeabi_d2f
 181              	.LVL14:
  40:Core/Src/main.c ****         Vsense = (3.1 * adcBuf[2]) / 4095U;
 182              		.loc 1 40 16 view .LVU34
 183 0044 194B     		ldr	r3, .L12+28
 184 0046 1860     		str	r0, [r3]	@ float
  41:Core/Src/main.c ****         TIM3->CCR2 = (8400 * adcBuf[0]) / 4095; 
 185              		.loc 1 41 9 is_stmt 1 view .LVU35
  41:Core/Src/main.c ****         TIM3->CCR2 = (8400 * adcBuf[0]) / 4095; 
 186              		.loc 1 41 28 is_stmt 0 view .LVU36
 187 0048 42F2D003 		movw	r3, #8400
 188 004c 03FB04F4 		mul	r4, r3, r4
  41:Core/Src/main.c ****         TIM3->CCR2 = (8400 * adcBuf[0]) / 4095; 
 189              		.loc 1 41 41 view .LVU37
 190 0050 174B     		ldr	r3, .L12+32
 191 0052 83FB0423 		smull	r2, r3, r3, r4
 192 0056 2344     		add	r3, r3, r4
 193 0058 DB12     		asrs	r3, r3, #11
  41:Core/Src/main.c ****         TIM3->CCR2 = (8400 * adcBuf[0]) / 4095; 
 194              		.loc 1 41 20 view .LVU38
 195 005a 164A     		ldr	r2, .L12+36
 196 005c 9363     		str	r3, [r2, #56]
  42:Core/Src/main.c ****         Temperature = ((0.76 - Vsense) / 2.5) + 25;
 197              		.loc 1 42 9 is_stmt 1 discriminator 1 view .LVU39
  42:Core/Src/main.c ****         Temperature = ((0.76 - Vsense) / 2.5) + 25;
 198              		.loc 1 42 30 is_stmt 0 discriminator 1 view .LVU40
 199 005e FFF7FEFF 		bl	__aeabi_f2d
 200              	.LVL15:
 201 0062 0246     		mov	r2, r0
 202 0064 0B46     		mov	r3, r1
 203 0066 0EA1     		adr	r1, .L12+16
 204 0068 D1E90001 		ldrd	r0, [r1]
 205 006c FFF7FEFF 		bl	__aeabi_dsub
ARM GAS  C:\Users\Asus\AppData\Local\Temp\cc9zYaHy.s 			page 6


 206              	.LVL16:
  42:Core/Src/main.c ****         Temperature = ((0.76 - Vsense) / 2.5) + 25;
 207              		.loc 1 42 40 discriminator 1 view .LVU41
 208 0070 0022     		movs	r2, #0
 209 0072 114B     		ldr	r3, .L12+40
 210 0074 FFF7FEFF 		bl	__aeabi_ddiv
 211              	.LVL17:
  42:Core/Src/main.c ****         Temperature = ((0.76 - Vsense) / 2.5) + 25;
 212              		.loc 1 42 47 discriminator 1 view .LVU42
 213 0078 0022     		movs	r2, #0
 214 007a 104B     		ldr	r3, .L12+44
 215 007c FFF7FEFF 		bl	__aeabi_dadd
 216              	.LVL18:
 217 0080 FFF7FEFF 		bl	__aeabi_d2f
 218              	.LVL19:
  42:Core/Src/main.c ****         Temperature = ((0.76 - Vsense) / 2.5) + 25;
 219              		.loc 1 42 21 discriminator 1 view .LVU43
 220 0084 0E4B     		ldr	r3, .L12+48
 221 0086 1860     		str	r0, [r3]	@ float
  25:Core/Src/main.c ****     while (1)
 222              		.loc 1 25 11 is_stmt 1 view .LVU44
 223 0088 C7E7     		b	.L10
 224              	.L13:
 225 008a 00BFAFF3 		.align	3
 225      0080
 226              	.L12:
 227 0090 CDCCCCCC 		.word	-858993459
 228 0094 CCCC0840 		.word	1074318540
 229 0098 00000000 		.word	0
 230 009c 00FEAF40 		.word	1085275648
 231 00a0 52B81E85 		.word	-2061584302
 232 00a4 EB51E83F 		.word	1072189931
 233 00a8 00000000 		.word	adcBuf
 234 00ac 00000000 		.word	Vsense
 235 00b0 81000880 		.word	-2146959231
 236 00b4 00040040 		.word	1073742848
 237 00b8 00000440 		.word	1074003968
 238 00bc 00003940 		.word	1077477376
 239 00c0 00000000 		.word	Temperature
 240              		.cfi_endproc
 241              	.LFE130:
 243              		.global	Vsense
 244              		.section	.bss.Vsense,"aw",%nobits
 245              		.align	2
 248              	Vsense:
 249 0000 00000000 		.space	4
 250              		.global	Temperature
 251              		.section	.bss.Temperature,"aw",%nobits
 252              		.align	2
 255              	Temperature:
 256 0000 00000000 		.space	4
 257              		.global	calculatePulseARR
 258              		.section	.bss.calculatePulseARR,"aw",%nobits
 259              		.align	2
 262              	calculatePulseARR:
 263 0000 00000000 		.space	4
 264              		.global	FLAG_Revolution
ARM GAS  C:\Users\Asus\AppData\Local\Temp\cc9zYaHy.s 			page 7


 265              		.section	.bss.FLAG_Revolution,"aw",%nobits
 266              		.align	2
 269              	FLAG_Revolution:
 270 0000 00000000 		.space	4
 271              		.global	BtnNum
 272              		.section	.bss.BtnNum,"aw",%nobits
 275              	BtnNum:
 276 0000 00       		.space	1
 277              		.global	adcTS
 278              		.section	.bss.adcTS,"aw",%nobits
 279              		.align	1
 282              	adcTS:
 283 0000 0000     		.space	2
 284              		.global	potentiometr
 285              		.section	.bss.potentiometr,"aw",%nobits
 286              		.align	1
 289              	potentiometr:
 290 0000 0000     		.space	2
 291              		.global	MotorTickCount
 292              		.section	.bss.MotorTickCount,"aw",%nobits
 293              		.align	1
 296              	MotorTickCount:
 297 0000 0000     		.space	2
 298              		.global	GlobalTickCount
 299              		.section	.bss.GlobalTickCount,"aw",%nobits
 300              		.align	1
 303              	GlobalTickCount:
 304 0000 0000     		.space	2
 305              		.global	adcInter
 306              		.section	.bss.adcInter,"aw",%nobits
 307              		.align	1
 310              	adcInter:
 311 0000 0000     		.space	2
 312              		.global	adcBuf
 313              		.section	.bss.adcBuf,"aw",%nobits
 314              		.align	2
 317              	adcBuf:
 318 0000 00000000 		.space	6
 318      0000
 319              		.text
 320              	.Letext0:
 321              		.file 2 "C:/Programm/tools/xpack-arm-none-eabi-gcc-14.2.1-1.1/arm-none-eabi/include/machine/_defau
 322              		.file 3 "C:/Programm/tools/xpack-arm-none-eabi-gcc-14.2.1-1.1/arm-none-eabi/include/sys/_stdint.h"
 323              		.file 4 "CMSIS/Devices/STM32F4xx/Inc/STM32F407xx/stm32f407xx.h"
 324              		.file 5 "Core/Inc/interrupt.h"
 325              		.file 6 "Core/Inc/init.h"
ARM GAS  C:\Users\Asus\AppData\Local\Temp\cc9zYaHy.s 			page 8

