ARM GAS  C:\Users\Asus\AppData\Local\Temp\ccSra1jO.s 			page 1


   1              		.cpu cortex-m4
   2              		.arch armv7e-m
   3              		.fpu fpv4-sp-d16
   4              		.eabi_attribute 27, 1
   5              		.eabi_attribute 28, 1
   6              		.eabi_attribute 20, 1
   7              		.eabi_attribute 21, 1
   8              		.eabi_attribute 23, 3
   9              		.eabi_attribute 24, 1
  10              		.eabi_attribute 25, 1
  11              		.eabi_attribute 26, 1
  12              		.eabi_attribute 30, 1
  13              		.eabi_attribute 34, 1
  14              		.eabi_attribute 18, 4
  15              		.file	"main.c"
  16              		.text
  17              	.Ltext0:
  18              		.cfi_sections	.debug_frame
  19              		.file 1 "Core/Src/main.c"
  20              		.section	.text.main,"ax",%progbits
  21              		.align	1
  22              		.global	main
  23              		.syntax unified
  24              		.thumb
  25              		.thumb_func
  27              	main:
  28              	.LFB130:
   1:Core/Src/main.c **** #include "interrupt.h"
   2:Core/Src/main.c **** 
   3:Core/Src/main.c **** volatile uint16_t adcBuf[4], adcInter;
   4:Core/Src/main.c **** volatile uint8_t adc_conversion_complete, adc_overrun_count;
   5:Core/Src/main.c **** 
   6:Core/Src/main.c **** uint16_t GlobalTickCount, adc_value[4];
   7:Core/Src/main.c **** float Temperature, Vsense;
   8:Core/Src/main.c **** 
   9:Core/Src/main.c **** int main(void)
  10:Core/Src/main.c **** {
  29              		.loc 1 10 1 view -0
  30              		.cfi_startproc
  31              		@ Volatile: function does not return.
  32              		@ args = 0, pretend = 0, frame = 0
  33              		@ frame_needed = 0, uses_anonymous_args = 0
  34 0000 08B5     		push	{r3, lr}
  35              	.LCFI0:
  36              		.cfi_def_cfa_offset 8
  37              		.cfi_offset 3, -8
  38              		.cfi_offset 14, -4
  11:Core/Src/main.c ****     RCC_Init();
  39              		.loc 1 11 5 view .LVU1
  40 0002 FFF7FEFF 		bl	RCC_Init
  41              	.LVL0:
  12:Core/Src/main.c ****     GPIO_Init();
  42              		.loc 1 12 5 view .LVU2
  43 0006 FFF7FEFF 		bl	GPIO_Init
  44              	.LVL1:
  13:Core/Src/main.c ****     SysTick_Init();
  45              		.loc 1 13 5 view .LVU3
ARM GAS  C:\Users\Asus\AppData\Local\Temp\ccSra1jO.s 			page 2


  46 000a FFF7FEFF 		bl	SysTick_Init
  47              	.LVL2:
  14:Core/Src/main.c ****     /*–ó–¥–µ—Å—å –≤–∞–∂–µ–Ω –ø–æ—Ä—è–¥–æ–∫ –∏–Ω–∏—Ü–∏–∞–ª–∏–∑–∞—Ü–∏–∏, —Ç–∞–∫ –∫–∞–∫ –ê–¶–ü –¥–æ–ª–
  15:Core/Src/main.c ****      *–∞ DMA –¥–æ —Ç–∞–π–º–µ—Ä–∞, –∫–æ—Ç–æ—Ä—ã–π –∑–∞–ø—É—Å–∫–∞–µ—Ç –ø—Ä–µ–æ–±—Ä–∞–∑–æ–≤–∞–Ω–∏–µ
  16:Core/Src/main.c ****      */   
  17:Core/Src/main.c ****     ADC_Init();
  48              		.loc 1 17 5 view .LVU4
  49 000e FFF7FEFF 		bl	ADC_Init
  50              	.LVL3:
  18:Core/Src/main.c ****     DMA_Init();
  51              		.loc 1 18 5 view .LVU5
  52 0012 FFF7FEFF 		bl	DMA_Init
  53              	.LVL4:
  19:Core/Src/main.c ****     TIM_PWM_Init();
  54              		.loc 1 19 5 view .LVU6
  55 0016 FFF7FEFF 		bl	TIM_PWM_Init
  56              	.LVL5:
  57 001a 0CE0     		b	.L3
  58              	.L2:
  20:Core/Src/main.c **** 
  21:Core/Src/main.c ****     while (1)
  22:Core/Src/main.c ****     {
  23:Core/Src/main.c ****         if(adc_conversion_complete) {
  24:Core/Src/main.c ****             adc_conversion_complete = 0; // –°–±—Ä–æ—Å —Ñ–ª–∞–≥–∞ –≥–æ—Ç–æ–≤–Ω–æ—Å—Ç–∏ –¥–∞–Ω–Ω—ã—Ö
  25:Core/Src/main.c ****             adc_value[0] = adcBuf[0];
  26:Core/Src/main.c ****             adc_value[1] = adcBuf[1];
  27:Core/Src/main.c ****             adc_value[2] = adcBuf[2];
  28:Core/Src/main.c ****             adc_value[3] = adcBuf[3];
  29:Core/Src/main.c ****         }
  30:Core/Src/main.c ****         // Vsense = (3.1 * adcBuf[2]) / 4095U;
  31:Core/Src/main.c ****         TIM3->CCR2 = (4199 * adc_value[0]) / 4095;
  59              		.loc 1 31 9 view .LVU7
  60              		.loc 1 31 39 is_stmt 0 view .LVU8
  61 001c 0F4B     		ldr	r3, .L5
  62 001e 1A88     		ldrh	r2, [r3]
  63              		.loc 1 31 28 view .LVU9
  64 0020 41F26703 		movw	r3, #4199
  65 0024 03FB02F2 		mul	r2, r3, r2
  66              		.loc 1 31 44 view .LVU10
  67 0028 0D4B     		ldr	r3, .L5+4
  68 002a 83FB0213 		smull	r1, r3, r3, r2
  69 002e 1344     		add	r3, r3, r2
  70 0030 DB12     		asrs	r3, r3, #11
  71              		.loc 1 31 20 view .LVU11
  72 0032 0C4A     		ldr	r2, .L5+8
  73 0034 9363     		str	r3, [r2, #56]
  21:Core/Src/main.c ****     {
  74              		.loc 1 21 11 is_stmt 1 view .LVU12
  75              	.L3:
  21:Core/Src/main.c ****     {
  76              		.loc 1 21 5 view .LVU13
  23:Core/Src/main.c ****             adc_conversion_complete = 0; // –°–±—Ä–æ—Å —Ñ–ª–∞–≥–∞ –≥–æ—Ç–æ–≤–Ω–æ—Å—Ç–∏ –¥–∞–Ω–Ω—ã—Ö
  77              		.loc 1 23 9 view .LVU14
  23:Core/Src/main.c ****             adc_conversion_complete = 0; // –°–±—Ä–æ—Å —Ñ–ª–∞–≥–∞ –≥–æ—Ç–æ–≤–Ω–æ—Å—Ç–∏ –¥–∞–Ω–Ω—ã—Ö
  78              		.loc 1 23 12 is_stmt 0 view .LVU15
  79 0036 0C4B     		ldr	r3, .L5+12
  80 0038 1B78     		ldrb	r3, [r3]	@ zero_extendqisi2
ARM GAS  C:\Users\Asus\AppData\Local\Temp\ccSra1jO.s 			page 3


  23:Core/Src/main.c ****             adc_conversion_complete = 0; // –°–±—Ä–æ—Å —Ñ–ª–∞–≥–∞ –≥–æ—Ç–æ–≤–Ω–æ—Å—Ç–∏ –¥–∞–Ω–Ω—ã—Ö
  81              		.loc 1 23 11 view .LVU16
  82 003a 002B     		cmp	r3, #0
  83 003c EED0     		beq	.L2
  24:Core/Src/main.c ****             adc_value[0] = adcBuf[0];
  84              		.loc 1 24 13 is_stmt 1 view .LVU17
  24:Core/Src/main.c ****             adc_value[0] = adcBuf[0];
  85              		.loc 1 24 37 is_stmt 0 view .LVU18
  86 003e 0A4B     		ldr	r3, .L5+12
  87 0040 0022     		movs	r2, #0
  88 0042 1A70     		strb	r2, [r3]
  25:Core/Src/main.c ****             adc_value[1] = adcBuf[1];
  89              		.loc 1 25 13 is_stmt 1 view .LVU19
  25:Core/Src/main.c ****             adc_value[1] = adcBuf[1];
  90              		.loc 1 25 34 is_stmt 0 view .LVU20
  91 0044 094A     		ldr	r2, .L5+16
  92 0046 1188     		ldrh	r1, [r2]
  25:Core/Src/main.c ****             adc_value[1] = adcBuf[1];
  93              		.loc 1 25 26 view .LVU21
  94 0048 044B     		ldr	r3, .L5
  95 004a 1980     		strh	r1, [r3]	@ movhi
  26:Core/Src/main.c ****             adc_value[2] = adcBuf[2];
  96              		.loc 1 26 13 is_stmt 1 view .LVU22
  26:Core/Src/main.c ****             adc_value[2] = adcBuf[2];
  97              		.loc 1 26 34 is_stmt 0 view .LVU23
  98 004c 5188     		ldrh	r1, [r2, #2]
  26:Core/Src/main.c ****             adc_value[2] = adcBuf[2];
  99              		.loc 1 26 26 view .LVU24
 100 004e 5980     		strh	r1, [r3, #2]	@ movhi
  27:Core/Src/main.c ****             adc_value[3] = adcBuf[3];
 101              		.loc 1 27 13 is_stmt 1 view .LVU25
  27:Core/Src/main.c ****             adc_value[3] = adcBuf[3];
 102              		.loc 1 27 34 is_stmt 0 view .LVU26
 103 0050 9188     		ldrh	r1, [r2, #4]
  27:Core/Src/main.c ****             adc_value[3] = adcBuf[3];
 104              		.loc 1 27 26 view .LVU27
 105 0052 9980     		strh	r1, [r3, #4]	@ movhi
  28:Core/Src/main.c ****         }
 106              		.loc 1 28 13 is_stmt 1 view .LVU28
  28:Core/Src/main.c ****         }
 107              		.loc 1 28 34 is_stmt 0 view .LVU29
 108 0054 D288     		ldrh	r2, [r2, #6]
  28:Core/Src/main.c ****         }
 109              		.loc 1 28 26 view .LVU30
 110 0056 DA80     		strh	r2, [r3, #6]	@ movhi
 111 0058 E0E7     		b	.L2
 112              	.L6:
 113 005a 00BF     		.align	2
 114              	.L5:
 115 005c 00000000 		.word	adc_value
 116 0060 81000880 		.word	-2146959231
 117 0064 00040040 		.word	1073742848
 118 0068 00000000 		.word	adc_conversion_complete
 119 006c 00000000 		.word	adcBuf
 120              		.cfi_endproc
 121              	.LFE130:
 123              		.global	Vsense
ARM GAS  C:\Users\Asus\AppData\Local\Temp\ccSra1jO.s 			page 4


 124              		.section	.bss.Vsense,"aw",%nobits
 125              		.align	2
 128              	Vsense:
 129 0000 00000000 		.space	4
 130              		.global	Temperature
 131              		.section	.bss.Temperature,"aw",%nobits
 132              		.align	2
 135              	Temperature:
 136 0000 00000000 		.space	4
 137              		.global	adc_value
 138              		.section	.bss.adc_value,"aw",%nobits
 139              		.align	2
 142              	adc_value:
 143 0000 00000000 		.space	8
 143      00000000 
 144              		.global	GlobalTickCount
 145              		.section	.bss.GlobalTickCount,"aw",%nobits
 146              		.align	1
 149              	GlobalTickCount:
 150 0000 0000     		.space	2
 151              		.global	adc_overrun_count
 152              		.section	.bss.adc_overrun_count,"aw",%nobits
 155              	adc_overrun_count:
 156 0000 00       		.space	1
 157              		.global	adc_conversion_complete
 158              		.section	.bss.adc_conversion_complete,"aw",%nobits
 161              	adc_conversion_complete:
 162 0000 00       		.space	1
 163              		.global	adcInter
 164              		.section	.bss.adcInter,"aw",%nobits
 165              		.align	1
 168              	adcInter:
 169 0000 0000     		.space	2
 170              		.global	adcBuf
 171              		.section	.bss.adcBuf,"aw",%nobits
 172              		.align	2
 175              	adcBuf:
 176 0000 00000000 		.space	8
 176      00000000 
 177              		.text
 178              	.Letext0:
 179              		.file 2 "C:/Programm/tools/xpack-arm-none-eabi-gcc-14.2.1-1.1/arm-none-eabi/include/machine/_defau
 180              		.file 3 "C:/Programm/tools/xpack-arm-none-eabi-gcc-14.2.1-1.1/arm-none-eabi/include/sys/_stdint.h"
 181              		.file 4 "CMSIS/Devices/STM32F4xx/Inc/STM32F407xx/stm32f407xx.h"
 182              		.file 5 "Core/Inc/init.h"
 183              		.file 6 "Core/Inc/interrupt.h"
ARM GAS  C:\Users\Asus\AppData\Local\Temp\ccSra1jO.s 			page 5


DEFINED SYMBOLS
                            *ABS*:00000000 main.c
C:\Users\Asus\AppData\Local\Temp\ccSra1jO.s:21     .text.main:00000000 $t
C:\Users\Asus\AppData\Local\Temp\ccSra1jO.s:27     .text.main:00000000 main
C:\Users\Asus\AppData\Local\Temp\ccSra1jO.s:115    .text.main:0000005c $d
C:\Users\Asus\AppData\Local\Temp\ccSra1jO.s:142    .bss.adc_value:00000000 adc_value
C:\Users\Asus\AppData\Local\Temp\ccSra1jO.s:161    .bss.adc_conversion_complete:00000000 adc_conversion_complete
C:\Users\Asus\AppData\Local\Temp\ccSra1jO.s:175    .bss.adcBuf:00000000 adcBuf
C:\Users\Asus\AppData\Local\Temp\ccSra1jO.s:128    .bss.Vsense:00000000 Vsense
C:\Users\Asus\AppData\Local\Temp\ccSra1jO.s:125    .bss.Vsense:00000000 $d
C:\Users\Asus\AppData\Local\Temp\ccSra1jO.s:135    .bss.Temperature:00000000 Temperature
C:\Users\Asus\AppData\Local\Temp\ccSra1jO.s:132    .bss.Temperature:00000000 $d
C:\Users\Asus\AppData\Local\Temp\ccSra1jO.s:139    .bss.adc_value:00000000 $d
C:\Users\Asus\AppData\Local\Temp\ccSra1jO.s:149    .bss.GlobalTickCount:00000000 GlobalTickCount
C:\Users\Asus\AppData\Local\Temp\ccSra1jO.s:146    .bss.GlobalTickCount:00000000 $d
C:\Users\Asus\AppData\Local\Temp\ccSra1jO.s:155    .bss.adc_overrun_count:00000000 adc_overrun_count
C:\Users\Asus\AppData\Local\Temp\ccSra1jO.s:156    .bss.adc_overrun_count:00000000 $d
C:\Users\Asus\AppData\Local\Temp\ccSra1jO.s:162    .bss.adc_conversion_complete:00000000 $d
C:\Users\Asus\AppData\Local\Temp\ccSra1jO.s:168    .bss.adcInter:00000000 adcInter
C:\Users\Asus\AppData\Local\Temp\ccSra1jO.s:165    .bss.adcInter:00000000 $d
C:\Users\Asus\AppData\Local\Temp\ccSra1jO.s:172    .bss.adcBuf:00000000 $d

UNDEFINED SYMBOLS
RCC_Init
GPIO_Init
SysTick_Init
ADC_Init
DMA_Init
TIM_PWM_Init
