ARM GAS  C:\Users\nip6\AppData\Local\Temp\ccYT4mcI.s 			page 1


   1              		.cpu cortex-m4
   2              		.arch armv7e-m
   3              		.fpu fpv4-sp-d16
   4              		.eabi_attribute 27, 1
   5              		.eabi_attribute 28, 1
   6              		.eabi_attribute 20, 1
   7              		.eabi_attribute 21, 1
   8              		.eabi_attribute 23, 3
   9              		.eabi_attribute 24, 1
  10              		.eabi_attribute 25, 1
  11              		.eabi_attribute 26, 1
  12              		.eabi_attribute 30, 1
  13              		.eabi_attribute 34, 1
  14              		.eabi_attribute 18, 4
  15              		.file	"interrupt.c"
  16              		.text
  17              	.Ltext0:
  18              		.cfi_sections	.debug_frame
  19              		.file 1 "Core/Src/interrupt.c"
  20              		.section	.text.SysTick_Handler,"ax",%progbits
  21              		.align	1
  22              		.global	SysTick_Handler
  23              		.syntax unified
  24              		.thumb
  25              		.thumb_func
  27              	SysTick_Handler:
  28              	.LFB130:
   1:Core/Src/interrupt.c **** #include "interrupt.h"
   2:Core/Src/interrupt.c **** 
   3:Core/Src/interrupt.c **** uint16_t tick_delay_count, miiliseconds, tim3_count;
   4:Core/Src/interrupt.c **** uint8_t FLAG_Delay;
   5:Core/Src/interrupt.c **** volatile float voltage, filter_volt = 0, k_volt = 0.01;
   6:Core/Src/interrupt.c **** 
   7:Core/Src/interrupt.c **** void SysTick_Handler(void)
   8:Core/Src/interrupt.c **** {
  29              		.loc 1 8 1 view -0
  30              		.cfi_startproc
  31              		@ args = 0, pretend = 0, frame = 0
  32              		@ frame_needed = 0, uses_anonymous_args = 0
  33              		@ link register save eliminated.
   9:Core/Src/interrupt.c ****     GlobalTickCount++;
  34              		.loc 1 9 5 view .LVU1
  35              		.loc 1 9 20 is_stmt 0 view .LVU2
  36 0000 054A     		ldr	r2, .L3
  37 0002 1388     		ldrh	r3, [r2]
  38 0004 0133     		adds	r3, r3, #1
  39 0006 1380     		strh	r3, [r2]	@ movhi
  10:Core/Src/interrupt.c ****     if (FLAG_Delay)
  40              		.loc 1 10 5 is_stmt 1 view .LVU3
  41              		.loc 1 10 9 is_stmt 0 view .LVU4
  42 0008 044B     		ldr	r3, .L3+4
  43 000a 1B78     		ldrb	r3, [r3]	@ zero_extendqisi2
  44              		.loc 1 10 8 view .LVU5
  45 000c 1BB1     		cbz	r3, .L1
  11:Core/Src/interrupt.c ****         tick_delay_count++;
  46              		.loc 1 11 9 is_stmt 1 view .LVU6
  47              		.loc 1 11 25 is_stmt 0 view .LVU7
ARM GAS  C:\Users\nip6\AppData\Local\Temp\ccYT4mcI.s 			page 2


  48 000e 044A     		ldr	r2, .L3+8
  49 0010 1388     		ldrh	r3, [r2]
  50 0012 0133     		adds	r3, r3, #1
  51 0014 1380     		strh	r3, [r2]	@ movhi
  52              	.L1:
  12:Core/Src/interrupt.c **** }
  53              		.loc 1 12 1 view .LVU8
  54 0016 7047     		bx	lr
  55              	.L4:
  56              		.align	2
  57              	.L3:
  58 0018 00000000 		.word	GlobalTickCount
  59 001c 00000000 		.word	FLAG_Delay
  60 0020 00000000 		.word	tick_delay_count
  61              		.cfi_endproc
  62              	.LFE130:
  64              		.section	.text.ADC_IRQHandler,"ax",%progbits
  65              		.align	1
  66              		.global	ADC_IRQHandler
  67              		.syntax unified
  68              		.thumb
  69              		.thumb_func
  71              	ADC_IRQHandler:
  72              	.LFB131:
  13:Core/Src/interrupt.c **** 
  14:Core/Src/interrupt.c **** void ADC_IRQHandler(void){
  73              		.loc 1 14 26 is_stmt 1 view -0
  74              		.cfi_startproc
  75              		@ args = 0, pretend = 0, frame = 0
  76              		@ frame_needed = 0, uses_anonymous_args = 0
  77              		@ link register save eliminated.
  15:Core/Src/interrupt.c ****     adcInter = ADC1->DR; 
  78              		.loc 1 15 5 view .LVU10
  79              		.loc 1 15 20 is_stmt 0 view .LVU11
  80 0000 024B     		ldr	r3, .L6
  81 0002 DB6C     		ldr	r3, [r3, #76]
  82              		.loc 1 15 14 view .LVU12
  83 0004 9BB2     		uxth	r3, r3
  84 0006 024A     		ldr	r2, .L6+4
  85 0008 1380     		strh	r3, [r2]	@ movhi
  16:Core/Src/interrupt.c ****     // SET_BIT(ADC1->CR2, ADC_CR2_SWSTART);
  17:Core/Src/interrupt.c **** }
  86              		.loc 1 17 1 view .LVU13
  87 000a 7047     		bx	lr
  88              	.L7:
  89              		.align	2
  90              	.L6:
  91 000c 00200140 		.word	1073815552
  92 0010 00000000 		.word	adcInter
  93              		.cfi_endproc
  94              	.LFE131:
  96              		.section	.text.DMA2_Stream0_IRQHandler,"ax",%progbits
  97              		.align	1
  98              		.global	DMA2_Stream0_IRQHandler
  99              		.syntax unified
 100              		.thumb
 101              		.thumb_func
ARM GAS  C:\Users\nip6\AppData\Local\Temp\ccYT4mcI.s 			page 3


 103              	DMA2_Stream0_IRQHandler:
 104              	.LFB132:
  18:Core/Src/interrupt.c **** 
  19:Core/Src/interrupt.c **** void DMA2_Stream0_IRQHandler(void){
 105              		.loc 1 19 35 is_stmt 1 view -0
 106              		.cfi_startproc
 107              		@ args = 0, pretend = 0, frame = 0
 108              		@ frame_needed = 0, uses_anonymous_args = 0
 109              		@ link register save eliminated.
  20:Core/Src/interrupt.c ****     if (READ_BIT(DMA2->LISR, DMA_LISR_TCIF0))
 110              		.loc 1 20 5 view .LVU15
 111              		.loc 1 20 9 is_stmt 0 view .LVU16
 112 0000 0E4B     		ldr	r3, .L11
 113 0002 1B68     		ldr	r3, [r3]
 114              		.loc 1 20 8 view .LVU17
 115 0004 13F0200F 		tst	r3, #32
 116 0008 07D0     		beq	.L9
  21:Core/Src/interrupt.c ****     {
  22:Core/Src/interrupt.c ****         SET_BIT(DMA2->LIFCR, DMA_LIFCR_CTCIF0); // Очистка флага прерывания
 117              		.loc 1 22 9 is_stmt 1 view .LVU18
 118 000a 0C4A     		ldr	r2, .L11
 119 000c 9368     		ldr	r3, [r2, #8]
 120 000e 43F02003 		orr	r3, r3, #32
 121 0012 9360     		str	r3, [r2, #8]
  23:Core/Src/interrupt.c ****         adc_conversion_complete = 1; // Установка флага готовности данн
 122              		.loc 1 23 9 view .LVU19
 123              		.loc 1 23 33 is_stmt 0 view .LVU20
 124 0014 0A4B     		ldr	r3, .L11+4
 125 0016 0122     		movs	r2, #1
 126 0018 1A70     		strb	r2, [r3]
 127              	.L9:
  24:Core/Src/interrupt.c ****     }
  25:Core/Src/interrupt.c ****     // Диагностика: проверка переполнения АЦП
  26:Core/Src/interrupt.c ****     if (ADC1->SR & ADC_SR_OVR) {
 128              		.loc 1 26 5 is_stmt 1 view .LVU21
 129              		.loc 1 26 13 is_stmt 0 view .LVU22
 130 001a 0A4B     		ldr	r3, .L11+8
 131 001c 1B68     		ldr	r3, [r3]
 132              		.loc 1 26 8 view .LVU23
 133 001e 13F0200F 		tst	r3, #32
 134 0022 09D0     		beq	.L8
  27:Core/Src/interrupt.c ****         adc_overrun_count++;
 135              		.loc 1 27 9 is_stmt 1 view .LVU24
 136              		.loc 1 27 26 is_stmt 0 view .LVU25
 137 0024 084A     		ldr	r2, .L11+12
 138 0026 1378     		ldrb	r3, [r2]	@ zero_extendqisi2
 139 0028 0133     		adds	r3, r3, #1
 140 002a DBB2     		uxtb	r3, r3
 141 002c 1370     		strb	r3, [r2]
  28:Core/Src/interrupt.c ****         ADC1->SR &= ~ADC_SR_OVR; // Сбрасываем флаг
 142              		.loc 1 28 9 is_stmt 1 view .LVU26
 143              		.loc 1 28 13 is_stmt 0 view .LVU27
 144 002e 054A     		ldr	r2, .L11+8
 145 0030 1368     		ldr	r3, [r2]
 146              		.loc 1 28 18 view .LVU28
 147 0032 23F02003 		bic	r3, r3, #32
 148 0036 1360     		str	r3, [r2]
ARM GAS  C:\Users\nip6\AppData\Local\Temp\ccYT4mcI.s 			page 4


 149              	.L8:
  29:Core/Src/interrupt.c ****     }
  30:Core/Src/interrupt.c **** }
 150              		.loc 1 30 1 view .LVU29
 151 0038 7047     		bx	lr
 152              	.L12:
 153 003a 00BF     		.align	2
 154              	.L11:
 155 003c 00640240 		.word	1073898496
 156 0040 00000000 		.word	adc_conversion_complete
 157 0044 00200140 		.word	1073815552
 158 0048 00000000 		.word	adc_overrun_count
 159              		.cfi_endproc
 160              	.LFE132:
 162              		.section	.text.TIM3_IRQHandler,"ax",%progbits
 163              		.align	1
 164              		.global	TIM3_IRQHandler
 165              		.syntax unified
 166              		.thumb
 167              		.thumb_func
 169              	TIM3_IRQHandler:
 170              	.LFB133:
  31:Core/Src/interrupt.c **** 
  32:Core/Src/interrupt.c **** void TIM3_IRQHandler(void){
 171              		.loc 1 32 27 is_stmt 1 view -0
 172              		.cfi_startproc
 173              		@ args = 0, pretend = 0, frame = 0
 174              		@ frame_needed = 0, uses_anonymous_args = 0
 175              		@ link register save eliminated.
  33:Core/Src/interrupt.c ****     if (READ_BIT(TIM3->SR, TIM_SR_UIF))
 176              		.loc 1 33 5 view .LVU31
 177              		.loc 1 33 9 is_stmt 0 view .LVU32
 178 0000 1C4B     		ldr	r3, .L15
 179 0002 1B69     		ldr	r3, [r3, #16]
 180              		.loc 1 33 8 view .LVU33
 181 0004 13F0010F 		tst	r3, #1
 182 0008 33D0     		beq	.L13
  34:Core/Src/interrupt.c ****     {
  35:Core/Src/interrupt.c ****         TIM3->SR &= ~TIM_SR_UIF; // Очистка флага прерывания
 183              		.loc 1 35 9 is_stmt 1 view .LVU34
 184              		.loc 1 35 13 is_stmt 0 view .LVU35
 185 000a 1A4A     		ldr	r2, .L15
 186 000c 1369     		ldr	r3, [r2, #16]
 187              		.loc 1 35 18 view .LVU36
 188 000e 23F00103 		bic	r3, r3, #1
 189 0012 1361     		str	r3, [r2, #16]
  36:Core/Src/interrupt.c ****         voltage = adc_buf[0] * ADC_DIVISION;
 190              		.loc 1 36 9 is_stmt 1 view .LVU37
 191              		.loc 1 36 26 is_stmt 0 view .LVU38
 192 0014 184B     		ldr	r3, .L15+4
 193 0016 1B88     		ldrh	r3, [r3]
 194 0018 9BB2     		uxth	r3, r3
 195 001a 07EE903A 		vmov	s15, r3	@ int
 196              		.loc 1 36 30 view .LVU39
 197 001e F8EEE77A 		vcvt.f32.s32	s15, s15
 198 0022 9FED167A 		vldr.32	s14, .L15+8
 199 0026 67EE877A 		vmul.f32	s15, s15, s14
ARM GAS  C:\Users\nip6\AppData\Local\Temp\ccYT4mcI.s 			page 5


 200              		.loc 1 36 17 view .LVU40
 201 002a 154B     		ldr	r3, .L15+12
 202 002c C3ED007A 		vstr.32	s15, [r3]
  37:Core/Src/interrupt.c ****         filter_volt += (voltage - filter_volt) * k_volt;
 203              		.loc 1 37 9 is_stmt 1 view .LVU41
 204              		.loc 1 37 33 is_stmt 0 view .LVU42
 205 0030 D3ED007A 		vldr.32	s15, [r3]
 206 0034 134B     		ldr	r3, .L15+16
 207 0036 93ED007A 		vldr.32	s14, [r3]
 208 003a 77EEC77A 		vsub.f32	s15, s15, s14
 209              		.loc 1 37 48 view .LVU43
 210 003e 124A     		ldr	r2, .L15+20
 211 0040 92ED007A 		vldr.32	s14, [r2]
 212 0044 67EE877A 		vmul.f32	s15, s15, s14
 213              		.loc 1 37 21 view .LVU44
 214 0048 93ED007A 		vldr.32	s14, [r3]
 215 004c 77EE277A 		vadd.f32	s15, s14, s15
 216 0050 C3ED007A 		vstr.32	s15, [r3]
  38:Core/Src/interrupt.c ****         tim3_count++;
 217              		.loc 1 38 9 is_stmt 1 view .LVU45
 218              		.loc 1 38 19 is_stmt 0 view .LVU46
 219 0054 0D4A     		ldr	r2, .L15+24
 220 0056 1388     		ldrh	r3, [r2]
 221 0058 0133     		adds	r3, r3, #1
 222 005a 9BB2     		uxth	r3, r3
 223 005c 1380     		strh	r3, [r2]	@ movhi
  39:Core/Src/interrupt.c ****         if(tim3_count >= 1000){
 224              		.loc 1 39 9 is_stmt 1 view .LVU47
 225              		.loc 1 39 11 is_stmt 0 view .LVU48
 226 005e B3F57A7F 		cmp	r3, #1000
 227 0062 06D3     		bcc	.L13
  40:Core/Src/interrupt.c ****             tim3_count = 0;
 228              		.loc 1 40 13 is_stmt 1 view .LVU49
 229              		.loc 1 40 24 is_stmt 0 view .LVU50
 230 0064 1346     		mov	r3, r2
 231 0066 0022     		movs	r2, #0
 232 0068 1A80     		strh	r2, [r3]	@ movhi
  41:Core/Src/interrupt.c ****             miiliseconds++;
 233              		.loc 1 41 13 is_stmt 1 view .LVU51
 234              		.loc 1 41 25 is_stmt 0 view .LVU52
 235 006a 094A     		ldr	r2, .L15+28
 236 006c 1388     		ldrh	r3, [r2]
 237 006e 0133     		adds	r3, r3, #1
 238 0070 1380     		strh	r3, [r2]	@ movhi
 239              	.L13:
  42:Core/Src/interrupt.c ****         }
  43:Core/Src/interrupt.c ****     }
  44:Core/Src/interrupt.c **** }
 240              		.loc 1 44 1 view .LVU53
 241 0072 7047     		bx	lr
 242              	.L16:
 243              		.align	2
 244              	.L15:
 245 0074 00040040 		.word	1073742848
 246 0078 00000000 		.word	adc_buf
 247 007c DBB33E3A 		.word	977187803
 248 0080 00000000 		.word	voltage
ARM GAS  C:\Users\nip6\AppData\Local\Temp\ccYT4mcI.s 			page 6


 249 0084 00000000 		.word	filter_volt
 250 0088 00000000 		.word	k_volt
 251 008c 00000000 		.word	tim3_count
 252 0090 00000000 		.word	miiliseconds
 253              		.cfi_endproc
 254              	.LFE133:
 256              		.section	.text.delay,"ax",%progbits
 257              		.align	1
 258              		.global	delay
 259              		.syntax unified
 260              		.thumb
 261              		.thumb_func
 263              	delay:
 264              	.LVL0:
 265              	.LFB134:
  45:Core/Src/interrupt.c **** 
  46:Core/Src/interrupt.c **** void delay(int del)
  47:Core/Src/interrupt.c **** {
 266              		.loc 1 47 1 is_stmt 1 view -0
 267              		.cfi_startproc
 268              		@ args = 0, pretend = 0, frame = 0
 269              		@ frame_needed = 0, uses_anonymous_args = 0
 270              		@ link register save eliminated.
  48:Core/Src/interrupt.c ****     FLAG_Delay = 1;
 271              		.loc 1 48 5 view .LVU55
 272              		.loc 1 48 16 is_stmt 0 view .LVU56
 273 0000 064B     		ldr	r3, .L19
 274 0002 0122     		movs	r2, #1
 275 0004 1A70     		strb	r2, [r3]
  49:Core/Src/interrupt.c ****     while (tick_delay_count < del)
 276              		.loc 1 49 5 is_stmt 1 view .LVU57
 277              	.L18:
  50:Core/Src/interrupt.c ****     {
  51:Core/Src/interrupt.c ****     }
 278              		.loc 1 51 5 view .LVU58
  49:Core/Src/interrupt.c ****     while (tick_delay_count < del)
 279              		.loc 1 49 29 discriminator 1 view .LVU59
 280 0006 064B     		ldr	r3, .L19+4
 281 0008 1B88     		ldrh	r3, [r3]
 282 000a 8342     		cmp	r3, r0
 283 000c FBDB     		blt	.L18
  52:Core/Src/interrupt.c ****     tick_delay_count = 0;
 284              		.loc 1 52 5 view .LVU60
 285              		.loc 1 52 22 is_stmt 0 view .LVU61
 286 000e 0023     		movs	r3, #0
 287 0010 034A     		ldr	r2, .L19+4
 288 0012 1380     		strh	r3, [r2]	@ movhi
  53:Core/Src/interrupt.c ****     FLAG_Delay = 0;
 289              		.loc 1 53 5 is_stmt 1 view .LVU62
 290              		.loc 1 53 16 is_stmt 0 view .LVU63
 291 0014 014A     		ldr	r2, .L19
 292 0016 1370     		strb	r3, [r2]
  54:Core/Src/interrupt.c **** }
 293              		.loc 1 54 1 view .LVU64
 294 0018 7047     		bx	lr
 295              	.L20:
 296 001a 00BF     		.align	2
ARM GAS  C:\Users\nip6\AppData\Local\Temp\ccYT4mcI.s 			page 7


 297              	.L19:
 298 001c 00000000 		.word	FLAG_Delay
 299 0020 00000000 		.word	tick_delay_count
 300              		.cfi_endproc
 301              	.LFE134:
 303              		.global	k_volt
 304              		.section	.data.k_volt,"aw"
 305              		.align	2
 308              	k_volt:
 309 0000 0AD7233C 		.word	1008981770
 310              		.global	filter_volt
 311              		.section	.bss.filter_volt,"aw",%nobits
 312              		.align	2
 315              	filter_volt:
 316 0000 00000000 		.space	4
 317              		.global	voltage
 318              		.section	.bss.voltage,"aw",%nobits
 319              		.align	2
 322              	voltage:
 323 0000 00000000 		.space	4
 324              		.global	FLAG_Delay
 325              		.section	.bss.FLAG_Delay,"aw",%nobits
 328              	FLAG_Delay:
 329 0000 00       		.space	1
 330              		.global	tim3_count
 331              		.section	.bss.tim3_count,"aw",%nobits
 332              		.align	1
 335              	tim3_count:
 336 0000 0000     		.space	2
 337              		.global	miiliseconds
 338              		.section	.bss.miiliseconds,"aw",%nobits
 339              		.align	1
 342              	miiliseconds:
 343 0000 0000     		.space	2
 344              		.global	tick_delay_count
 345              		.section	.bss.tick_delay_count,"aw",%nobits
 346              		.align	1
 349              	tick_delay_count:
 350 0000 0000     		.space	2
 351              		.text
 352              	.Letext0:
 353              		.file 2 "C:/Programs/Tools/xpack-arm-none-eabi-gcc-13.2.1-1.1/arm-none-eabi/include/machine/_defau
 354              		.file 3 "C:/Programs/Tools/xpack-arm-none-eabi-gcc-13.2.1-1.1/arm-none-eabi/include/sys/_stdint.h"
 355              		.file 4 "CMSIS/Devices/STM32F4xx/Inc/STM32F411xE/stm32f411xe.h"
 356              		.file 5 "Core/Inc/init.h"
 357              		.file 6 "Core/Inc/interrupt.h"
ARM GAS  C:\Users\nip6\AppData\Local\Temp\ccYT4mcI.s 			page 8

