ARM GAS  C:\Users\Asus\AppData\Local\Temp\ccMYosB8.s 			page 1


   1              		.cpu cortex-m4
   2              		.arch armv7e-m
   3              		.fpu fpv4-sp-d16
   4              		.eabi_attribute 27, 1
   5              		.eabi_attribute 28, 1
   6              		.eabi_attribute 20, 1
   7              		.eabi_attribute 21, 1
   8              		.eabi_attribute 23, 3
   9              		.eabi_attribute 24, 1
  10              		.eabi_attribute 25, 1
  11              		.eabi_attribute 26, 1
  12              		.eabi_attribute 30, 1
  13              		.eabi_attribute 34, 1
  14              		.eabi_attribute 18, 4
  15              		.file	"main.c"
  16              		.text
  17              	.Ltext0:
  18              		.cfi_sections	.debug_frame
  19              		.file 1 "Core/Src/main.c"
  20              		.section	.text.main,"ax",%progbits
  21              		.align	1
  22              		.global	main
  23              		.syntax unified
  24              		.thumb
  25              		.thumb_func
  27              	main:
  28              	.LFB130:
   1:Core/Src/main.c **** #include "interrupt.h"
   2:Core/Src/main.c **** 
   3:Core/Src/main.c **** #define ADC_DIVISION 3.26 / 4095
   4:Core/Src/main.c **** 
   5:Core/Src/main.c **** volatile uint16_t adc_buf[ADC_NUM_CHANNEL - 1], adcInter, motor_freq;
   6:Core/Src/main.c **** volatile uint8_t adc_conversion_complete, adc_overrun_count, motor_direction;
   7:Core/Src/main.c **** 
   8:Core/Src/main.c **** uint16_t GlobalTickCount, adc_value[ADC_NUM_CHANNEL - 1];
   9:Core/Src/main.c **** float Temperature, Vsense, voltage;
  10:Core/Src/main.c **** 
  11:Core/Src/main.c **** int main(void)
  12:Core/Src/main.c **** {
  29              		.loc 1 12 1 view -0
  30              		.cfi_startproc
  31              		@ Volatile: function does not return.
  32              		@ args = 0, pretend = 0, frame = 0
  33              		@ frame_needed = 0, uses_anonymous_args = 0
  34 0000 08B5     		push	{r3, lr}
  35              	.LCFI0:
  36              		.cfi_def_cfa_offset 8
  37              		.cfi_offset 3, -8
  38              		.cfi_offset 14, -4
  13:Core/Src/main.c ****     RCC_Init();
  39              		.loc 1 13 5 view .LVU1
  40 0002 FFF7FEFF 		bl	RCC_Init
  41              	.LVL0:
  14:Core/Src/main.c ****     GPIO_Init();
  42              		.loc 1 14 5 view .LVU2
  43 0006 FFF7FEFF 		bl	GPIO_Init
  44              	.LVL1:
ARM GAS  C:\Users\Asus\AppData\Local\Temp\ccMYosB8.s 			page 2


  15:Core/Src/main.c ****     SysTick_Init();
  45              		.loc 1 15 5 view .LVU3
  46 000a FFF7FEFF 		bl	SysTick_Init
  47              	.LVL2:
  16:Core/Src/main.c ****     /*–Ч–і–µ—Б—М –≤–∞–ґ–µ–љ –њ–Њ—А—П–і–Њ–Ї –Є–љ–Є—Ж–Є–∞–ї–Є–Ј–∞—Ж–Є–Є, —В–∞–Ї –Ї–∞–Ї –Р–¶–Я –і–Њ–ї–
  17:Core/Src/main.c ****      *–∞ DMA –і–Њ —В–∞–є–Љ–µ—А–∞, –Ї–Њ—В–Њ—А—Л–є –Ј–∞–њ—Г—Б–Ї–∞–µ—В –њ—А–µ–Њ–±—А–∞–Ј–Њ–≤–∞–љ–Є–µ
  18:Core/Src/main.c ****      */   
  19:Core/Src/main.c ****     ADC_Init();
  48              		.loc 1 19 5 view .LVU4
  49 000e FFF7FEFF 		bl	ADC_Init
  50              	.LVL3:
  20:Core/Src/main.c ****     DMA_Init();
  51              		.loc 1 20 5 view .LVU5
  52 0012 FFF7FEFF 		bl	DMA_Init
  53              	.LVL4:
  21:Core/Src/main.c ****     TIM_PWM_Init();
  54              		.loc 1 21 5 view .LVU6
  55 0016 FFF7FEFF 		bl	TIM_PWM_Init
  56              	.LVL5:
  57 001a 08E0     		b	.L5
  58              	.L3:
  22:Core/Src/main.c **** 
  23:Core/Src/main.c ****     while (1)
  24:Core/Src/main.c ****     {
  25:Core/Src/main.c ****         if(adc_conversion_complete) {
  26:Core/Src/main.c ****             adc_conversion_complete = 0; // –°–±—А–Њ—Б —Д–ї–∞–≥–∞ –≥–Њ—В–Њ–≤–љ–Њ—Б—В–Є –і–∞–љ–љ—Л—Е
  27:Core/Src/main.c ****             adc_value[0] = adc_buf[0];
  28:Core/Src/main.c ****             // adc_value[1] = adc_buf[1];
  29:Core/Src/main.c ****             // adc_value[2] = adc_buf[2];
  30:Core/Src/main.c ****             // adc_value[3] = adc_buf[3];
  31:Core/Src/main.c ****         }
  32:Core/Src/main.c ****         voltage = adc_value[0] * ADC_DIVISION;
  33:Core/Src/main.c **** 
  34:Core/Src/main.c ****         if (motor_direction){
  35:Core/Src/main.c ****             SET_BIT(GPIOA->BSRR, GPIO_BSRR_BS6);
  36:Core/Src/main.c ****         }
  37:Core/Src/main.c ****         else SET_BIT(GPIOA->BSRR, GPIO_BSRR_BR6);
  59              		.loc 1 37 14 view .LVU7
  60 001c 1C4A     		ldr	r2, .L7+16
  61 001e 9369     		ldr	r3, [r2, #24]
  62 0020 43F48003 		orr	r3, r3, #4194304
  63 0024 9361     		str	r3, [r2, #24]
  64              	.L4:
  38:Core/Src/main.c ****     
  39:Core/Src/main.c ****         // Vsense = (3.1 * adcBuf[2]) / 4095U;
  40:Core/Src/main.c ****         // TIM3->CCR2 = (4199 * adc_value[0]) / 4095;
  41:Core/Src/main.c ****         // TIM3->CCR2 = motor_freq;
  42:Core/Src/main.c ****         TIM3->CCR2 = 2400-1;
  65              		.loc 1 42 9 view .LVU8
  66              		.loc 1 42 20 is_stmt 0 view .LVU9
  67 0026 1B4B     		ldr	r3, .L7+20
  68 0028 40F65F12 		movw	r2, #2399
  69 002c 9A63     		str	r2, [r3, #56]
  23:Core/Src/main.c ****     {
  70              		.loc 1 23 11 is_stmt 1 view .LVU10
  71              	.L5:
  23:Core/Src/main.c ****     {
ARM GAS  C:\Users\Asus\AppData\Local\Temp\ccMYosB8.s 			page 3


  72              		.loc 1 23 5 view .LVU11
  25:Core/Src/main.c ****             adc_conversion_complete = 0; // –°–±—А–Њ—Б —Д–ї–∞–≥–∞ –≥–Њ—В–Њ–≤–љ–Њ—Б—В–Є –і–∞–љ–љ—Л—Е
  73              		.loc 1 25 9 view .LVU12
  25:Core/Src/main.c ****             adc_conversion_complete = 0; // –°–±—А–Њ—Б —Д–ї–∞–≥–∞ –≥–Њ—В–Њ–≤–љ–Њ—Б—В–Є –і–∞–љ–љ—Л—Е
  74              		.loc 1 25 12 is_stmt 0 view .LVU13
  75 002e 1A4B     		ldr	r3, .L7+24
  76 0030 1B78     		ldrb	r3, [r3]	@ zero_extendqisi2
  25:Core/Src/main.c ****             adc_conversion_complete = 0; // –°–±—А–Њ—Б —Д–ї–∞–≥–∞ –≥–Њ—В–Њ–≤–љ–Њ—Б—В–Є –і–∞–љ–љ—Л—Е
  77              		.loc 1 25 11 view .LVU14
  78 0032 33B1     		cbz	r3, .L2
  26:Core/Src/main.c ****             adc_value[0] = adc_buf[0];
  79              		.loc 1 26 13 is_stmt 1 view .LVU15
  26:Core/Src/main.c ****             adc_value[0] = adc_buf[0];
  80              		.loc 1 26 37 is_stmt 0 view .LVU16
  81 0034 184B     		ldr	r3, .L7+24
  82 0036 0022     		movs	r2, #0
  83 0038 1A70     		strb	r2, [r3]
  27:Core/Src/main.c ****             // adc_value[1] = adc_buf[1];
  84              		.loc 1 27 13 is_stmt 1 view .LVU17
  27:Core/Src/main.c ****             // adc_value[1] = adc_buf[1];
  85              		.loc 1 27 35 is_stmt 0 view .LVU18
  86 003a 184B     		ldr	r3, .L7+28
  87 003c 1A88     		ldrh	r2, [r3]
  27:Core/Src/main.c ****             // adc_value[1] = adc_buf[1];
  88              		.loc 1 27 26 view .LVU19
  89 003e 184B     		ldr	r3, .L7+32
  90 0040 1A80     		strh	r2, [r3]	@ movhi
  91              	.L2:
  32:Core/Src/main.c **** 
  92              		.loc 1 32 9 is_stmt 1 view .LVU20
  32:Core/Src/main.c **** 
  93              		.loc 1 32 32 is_stmt 0 view .LVU21
  94 0042 174B     		ldr	r3, .L7+32
  95 0044 1888     		ldrh	r0, [r3]
  96 0046 FFF7FEFF 		bl	__aeabi_i2d
  97              	.LVL6:
  98 004a 0DA3     		adr	r3, .L7
  99 004c D3E90023 		ldrd	r2, [r3]
 100 0050 FFF7FEFF 		bl	__aeabi_dmul
 101              	.LVL7:
  32:Core/Src/main.c **** 
 102              		.loc 1 32 34 view .LVU22
 103 0054 0CA3     		adr	r3, .L7+8
 104 0056 D3E90023 		ldrd	r2, [r3]
 105 005a FFF7FEFF 		bl	__aeabi_ddiv
 106              	.LVL8:
 107 005e FFF7FEFF 		bl	__aeabi_d2f
 108              	.LVL9:
  32:Core/Src/main.c **** 
 109              		.loc 1 32 17 view .LVU23
 110 0062 104B     		ldr	r3, .L7+36
 111 0064 1860     		str	r0, [r3]	@ float
  34:Core/Src/main.c ****             SET_BIT(GPIOA->BSRR, GPIO_BSRR_BS6);
 112              		.loc 1 34 9 is_stmt 1 view .LVU24
  34:Core/Src/main.c ****             SET_BIT(GPIOA->BSRR, GPIO_BSRR_BS6);
 113              		.loc 1 34 13 is_stmt 0 view .LVU25
 114 0066 104B     		ldr	r3, .L7+40
ARM GAS  C:\Users\Asus\AppData\Local\Temp\ccMYosB8.s 			page 4


 115 0068 1B78     		ldrb	r3, [r3]	@ zero_extendqisi2
  34:Core/Src/main.c ****             SET_BIT(GPIOA->BSRR, GPIO_BSRR_BS6);
 116              		.loc 1 34 12 view .LVU26
 117 006a 002B     		cmp	r3, #0
 118 006c D6D0     		beq	.L3
  35:Core/Src/main.c ****         }
 119              		.loc 1 35 13 is_stmt 1 view .LVU27
 120 006e 084A     		ldr	r2, .L7+16
 121 0070 9369     		ldr	r3, [r2, #24]
 122 0072 43F04003 		orr	r3, r3, #64
 123 0076 9361     		str	r3, [r2, #24]
 124 0078 D5E7     		b	.L4
 125              	.L8:
 126 007a 00BFAFF3 		.align	3
 126      0080
 127              	.L7:
 128 0080 14AE47E1 		.word	-515396076
 129 0084 7A140A40 		.word	1074402426
 130 0088 00000000 		.word	0
 131 008c 00FEAF40 		.word	1085275648
 132 0090 00000240 		.word	1073872896
 133 0094 00040040 		.word	1073742848
 134 0098 00000000 		.word	adc_conversion_complete
 135 009c 00000000 		.word	adc_buf
 136 00a0 00000000 		.word	adc_value
 137 00a4 00000000 		.word	voltage
 138 00a8 00000000 		.word	motor_direction
 139              		.cfi_endproc
 140              	.LFE130:
 142              		.global	voltage
 143              		.section	.bss.voltage,"aw",%nobits
 144              		.align	2
 147              	voltage:
 148 0000 00000000 		.space	4
 149              		.global	Vsense
 150              		.section	.bss.Vsense,"aw",%nobits
 151              		.align	2
 154              	Vsense:
 155 0000 00000000 		.space	4
 156              		.global	Temperature
 157              		.section	.bss.Temperature,"aw",%nobits
 158              		.align	2
 161              	Temperature:
 162 0000 00000000 		.space	4
 163              		.global	adc_value
 164              		.section	.bss.adc_value,"aw",%nobits
 165              		.align	2
 168              	adc_value:
 169 0000 00000000 		.space	6
 169      0000
 170              		.global	GlobalTickCount
 171              		.section	.bss.GlobalTickCount,"aw",%nobits
 172              		.align	1
 175              	GlobalTickCount:
 176 0000 0000     		.space	2
 177              		.global	motor_direction
 178              		.section	.bss.motor_direction,"aw",%nobits
ARM GAS  C:\Users\Asus\AppData\Local\Temp\ccMYosB8.s 			page 5


 181              	motor_direction:
 182 0000 00       		.space	1
 183              		.global	adc_overrun_count
 184              		.section	.bss.adc_overrun_count,"aw",%nobits
 187              	adc_overrun_count:
 188 0000 00       		.space	1
 189              		.global	adc_conversion_complete
 190              		.section	.bss.adc_conversion_complete,"aw",%nobits
 193              	adc_conversion_complete:
 194 0000 00       		.space	1
 195              		.global	motor_freq
 196              		.section	.bss.motor_freq,"aw",%nobits
 197              		.align	1
 200              	motor_freq:
 201 0000 0000     		.space	2
 202              		.global	adcInter
 203              		.section	.bss.adcInter,"aw",%nobits
 204              		.align	1
 207              	adcInter:
 208 0000 0000     		.space	2
 209              		.global	adc_buf
 210              		.section	.bss.adc_buf,"aw",%nobits
 211              		.align	2
 214              	adc_buf:
 215 0000 00000000 		.space	6
 215      0000
 216              		.text
 217              	.Letext0:
 218              		.file 2 "C:/Programm/tools/xpack-arm-none-eabi-gcc-14.2.1-1.1/arm-none-eabi/include/machine/_defau
 219              		.file 3 "C:/Programm/tools/xpack-arm-none-eabi-gcc-14.2.1-1.1/arm-none-eabi/include/sys/_stdint.h"
 220              		.file 4 "CMSIS/Devices/STM32F4xx/Inc/STM32F411xE/stm32f411xe.h"
 221              		.file 5 "Core/Inc/init.h"
 222              		.file 6 "Core/Inc/interrupt.h"
ARM GAS  C:\Users\Asus\AppData\Local\Temp\ccMYosB8.s 			page 6


DEFINED SYMBOLS
                            *ABS*:00000000 main.c
C:\Users\Asus\AppData\Local\Temp\ccMYosB8.s:21     .text.main:00000000 $t
C:\Users\Asus\AppData\Local\Temp\ccMYosB8.s:27     .text.main:00000000 main
C:\Users\Asus\AppData\Local\Temp\ccMYosB8.s:128    .text.main:00000080 $d
C:\Users\Asus\AppData\Local\Temp\ccMYosB8.s:193    .bss.adc_conversion_complete:00000000 adc_conversion_complete
C:\Users\Asus\AppData\Local\Temp\ccMYosB8.s:214    .bss.adc_buf:00000000 adc_buf
C:\Users\Asus\AppData\Local\Temp\ccMYosB8.s:168    .bss.adc_value:00000000 adc_value
C:\Users\Asus\AppData\Local\Temp\ccMYosB8.s:147    .bss.voltage:00000000 voltage
C:\Users\Asus\AppData\Local\Temp\ccMYosB8.s:181    .bss.motor_direction:00000000 motor_direction
C:\Users\Asus\AppData\Local\Temp\ccMYosB8.s:144    .bss.voltage:00000000 $d
C:\Users\Asus\AppData\Local\Temp\ccMYosB8.s:154    .bss.Vsense:00000000 Vsense
C:\Users\Asus\AppData\Local\Temp\ccMYosB8.s:151    .bss.Vsense:00000000 $d
C:\Users\Asus\AppData\Local\Temp\ccMYosB8.s:161    .bss.Temperature:00000000 Temperature
C:\Users\Asus\AppData\Local\Temp\ccMYosB8.s:158    .bss.Temperature:00000000 $d
C:\Users\Asus\AppData\Local\Temp\ccMYosB8.s:165    .bss.adc_value:00000000 $d
C:\Users\Asus\AppData\Local\Temp\ccMYosB8.s:175    .bss.GlobalTickCount:00000000 GlobalTickCount
C:\Users\Asus\AppData\Local\Temp\ccMYosB8.s:172    .bss.GlobalTickCount:00000000 $d
C:\Users\Asus\AppData\Local\Temp\ccMYosB8.s:182    .bss.motor_direction:00000000 $d
C:\Users\Asus\AppData\Local\Temp\ccMYosB8.s:187    .bss.adc_overrun_count:00000000 adc_overrun_count
C:\Users\Asus\AppData\Local\Temp\ccMYosB8.s:188    .bss.adc_overrun_count:00000000 $d
C:\Users\Asus\AppData\Local\Temp\ccMYosB8.s:194    .bss.adc_conversion_complete:00000000 $d
C:\Users\Asus\AppData\Local\Temp\ccMYosB8.s:200    .bss.motor_freq:00000000 motor_freq
C:\Users\Asus\AppData\Local\Temp\ccMYosB8.s:197    .bss.motor_freq:00000000 $d
C:\Users\Asus\AppData\Local\Temp\ccMYosB8.s:207    .bss.adcInter:00000000 adcInter
C:\Users\Asus\AppData\Local\Temp\ccMYosB8.s:204    .bss.adcInter:00000000 $d
C:\Users\Asus\AppData\Local\Temp\ccMYosB8.s:211    .bss.adc_buf:00000000 $d

UNDEFINED SYMBOLS
RCC_Init
GPIO_Init
SysTick_Init
ADC_Init
DMA_Init
TIM_PWM_Init
__aeabi_i2d
__aeabi_dmul
__aeabi_ddiv
__aeabi_d2f
