ARM GAS  C:\Users\nip6\AppData\Local\Temp\cc7hcIfv.s 			page 1


   1              		.cpu cortex-m4
   2              		.arch armv7e-m
   3              		.fpu fpv4-sp-d16
   4              		.eabi_attribute 27, 1
   5              		.eabi_attribute 28, 1
   6              		.eabi_attribute 20, 1
   7              		.eabi_attribute 21, 1
   8              		.eabi_attribute 23, 3
   9              		.eabi_attribute 24, 1
  10              		.eabi_attribute 25, 1
  11              		.eabi_attribute 26, 1
  12              		.eabi_attribute 30, 1
  13              		.eabi_attribute 34, 1
  14              		.eabi_attribute 18, 4
  15              		.file	"main.c"
  16              		.text
  17              	.Ltext0:
  18              		.cfi_sections	.debug_frame
  19              		.file 1 "Core/Src/main.c"
  20              		.section	.text.filter_testing,"ax",%progbits
  21              		.align	1
  22              		.global	filter_testing
  23              		.syntax unified
  24              		.thumb
  25              		.thumb_func
  27              	filter_testing:
  28              	.LVL0:
  29              	.LFB131:
   1:Core/Src/main.c **** #include "interrupt.h"
   2:Core/Src/main.c **** 
   3:Core/Src/main.c **** volatile uint16_t adc_buf[ADC_NUM_CHANNEL - 1], adcInter, motor_freq;
   4:Core/Src/main.c **** volatile uint8_t adc_conversion_complete, adc_overrun_count, motor_direction, permis = 1;
   5:Core/Src/main.c **** 
   6:Core/Src/main.c **** uint16_t GlobalTickCount, adc_value[ADC_NUM_CHANNEL - 1];
   7:Core/Src/main.c **** volatile float Temperature, Vsense;
   8:Core/Src/main.c **** 
   9:Core/Src/main.c **** void filter_testing(uint8_t permission);
  10:Core/Src/main.c **** 
  11:Core/Src/main.c **** int main(void)
  12:Core/Src/main.c **** {
  13:Core/Src/main.c ****     RCC_Init();
  14:Core/Src/main.c ****     GPIO_Init();
  15:Core/Src/main.c ****     SysTick_Init();
  16:Core/Src/main.c ****     /*ąŚą┤ąĄčüčī ą▓ą░ąČąĄąĮ ą┐ąŠčĆčÅą┤ąŠą║ ąĖąĮąĖčåąĖą░ą╗ąĖąĘą░čåąĖąĖ, čéą░ą║ ą║ą░ą║ ąÉą”ą¤ ą┤ąŠą╗ą
  17:Core/Src/main.c ****      *ą░ DMA ą┤ąŠ čéą░ą╣ą╝ąĄčĆą░, ą║ąŠčéąŠčĆčŗą╣ ąĘą░ą┐čāčüą║ą░ąĄčé ą┐čĆąĄąŠą▒čĆą░ąĘąŠą▓ą░ąĮąĖąĄ
  18:Core/Src/main.c ****      */
  19:Core/Src/main.c ****     ADC_Init();
  20:Core/Src/main.c ****     DMA_Init();
  21:Core/Src/main.c ****     TIM_PWM_Init();
  22:Core/Src/main.c **** 
  23:Core/Src/main.c ****     while (1)
  24:Core/Src/main.c ****     {
  25:Core/Src/main.c ****         // if (adc_conversion_complete)
  26:Core/Src/main.c ****         // {
  27:Core/Src/main.c ****         //     adc_conversion_complete = 0; // ąĪą▒čĆąŠčü čäą╗ą░ą│ą░ ą│ąŠčéąŠą▓ąĮąŠčüčéąĖ ą┤ą░ąĮąĮč
  28:Core/Src/main.c ****         //     adc_value[0] = adc_buf[0];
  29:Core/Src/main.c ****         // }
ARM GAS  C:\Users\nip6\AppData\Local\Temp\cc7hcIfv.s 			page 2


  30:Core/Src/main.c **** 
  31:Core/Src/main.c ****         // voltage = adc_value[0] * ADC_DIVISION;
  32:Core/Src/main.c ****         // filter_volt += (voltage - filter_volt) * k_volt;
  33:Core/Src/main.c **** 
  34:Core/Src/main.c ****         filter_testing(permis);
  35:Core/Src/main.c ****         if (permis)
  36:Core/Src/main.c ****         {
  37:Core/Src/main.c ****             TIM3->CCR2 = 1;
  38:Core/Src/main.c ****         }
  39:Core/Src/main.c ****     }
  40:Core/Src/main.c **** }
  41:Core/Src/main.c **** 
  42:Core/Src/main.c **** void filter_testing(uint8_t permission)
  43:Core/Src/main.c **** {
  30              		.loc 1 43 1 view -0
  31              		.cfi_startproc
  32              		@ args = 0, pretend = 0, frame = 0
  33              		@ frame_needed = 0, uses_anonymous_args = 0
  34              		.loc 1 43 1 is_stmt 0 view .LVU1
  35 0000 38B5     		push	{r3, r4, r5, lr}
  36              	.LCFI0:
  37              		.cfi_def_cfa_offset 16
  38              		.cfi_offset 3, -16
  39              		.cfi_offset 4, -12
  40              		.cfi_offset 5, -8
  41              		.cfi_offset 14, -4
  42 0002 0546     		mov	r5, r0
  44:Core/Src/main.c ****     SET_BIT(GPIOA->BSRR, GPIO_BSRR_BS6); // ąŚą░ą┤ą░čæą╝ ąĮą░čćą░ą╗čīąĮąŠąĄ ąĮą░ą┐čĆą░ą▓ą╗ąĄąĮąĖąĄ 
  43              		.loc 1 44 5 is_stmt 1 view .LVU2
  44 0004 244A     		ldr	r2, .L16
  45 0006 9369     		ldr	r3, [r2, #24]
  46 0008 43F04003 		orr	r3, r3, #64
  47 000c 9361     		str	r3, [r2, #24]
  45:Core/Src/main.c ****     for (uint16_t time = 1; time <= 4500; time += 500)
  48              		.loc 1 45 5 view .LVU3
  49              	.LBB2:
  50              		.loc 1 45 10 view .LVU4
  51              	.LVL1:
  52              		.loc 1 45 19 is_stmt 0 view .LVU5
  53 000e 0124     		movs	r4, #1
  54              	.LVL2:
  55              	.L2:
  56              		.loc 1 45 34 is_stmt 1 discriminator 1 view .LVU6
  57 0010 41F29413 		movw	r3, #4500
  58 0014 9C42     		cmp	r4, r3
  59 0016 0AD8     		bhi	.L12
  46:Core/Src/main.c ****     {
  47:Core/Src/main.c ****         if (permission)
  60              		.loc 1 47 9 view .LVU7
  61              		.loc 1 47 12 is_stmt 0 view .LVU8
  62 0018 BDB9     		cbnz	r5, .L1
  48:Core/Src/main.c ****         {
  49:Core/Src/main.c ****             return;
  50:Core/Src/main.c ****         }
  51:Core/Src/main.c ****         TIM3->CCR2 = time;
  63              		.loc 1 51 9 is_stmt 1 view .LVU9
  64              		.loc 1 51 20 is_stmt 0 view .LVU10
ARM GAS  C:\Users\nip6\AppData\Local\Temp\cc7hcIfv.s 			page 3


  65 001a 204B     		ldr	r3, .L16+4
  66 001c 9C63     		str	r4, [r3, #56]
  52:Core/Src/main.c ****         delay(500);
  67              		.loc 1 52 9 is_stmt 1 view .LVU11
  68 001e 4FF4FA70 		mov	r0, #500
  69 0022 FFF7FEFF 		bl	delay
  70              	.LVL3:
  45:Core/Src/main.c ****     {
  71              		.loc 1 45 48 discriminator 2 view .LVU12
  72 0026 04F5FA74 		add	r4, r4, #500
  73              	.LVL4:
  45:Core/Src/main.c ****     {
  74              		.loc 1 45 48 is_stmt 0 discriminator 2 view .LVU13
  75 002a A4B2     		uxth	r4, r4
  76              	.LVL5:
  45:Core/Src/main.c ****     {
  77              		.loc 1 45 48 discriminator 2 view .LVU14
  78 002c F0E7     		b	.L2
  79              	.L12:
  45:Core/Src/main.c ****     {
  80              		.loc 1 45 48 discriminator 2 view .LVU15
  81              	.LBE2:
  82              	.LBB3:
  53:Core/Src/main.c ****     }
  54:Core/Src/main.c ****     for (uint16_t time = 4500; time >= 1; time -= 500)
  83              		.loc 1 54 19 view .LVU16
  84 002e 1C46     		mov	r4, r3
  85              	.LVL6:
  86              		.loc 1 54 19 view .LVU17
  87 0030 08E0     		b	.L5
  88              	.LVL7:
  89              	.L14:
  55:Core/Src/main.c ****     {
  56:Core/Src/main.c ****         if(permission){
  57:Core/Src/main.c ****             return;
  58:Core/Src/main.c ****         }
  59:Core/Src/main.c ****         TIM3->CCR2 = time;
  90              		.loc 1 59 9 is_stmt 1 view .LVU18
  91              		.loc 1 59 20 is_stmt 0 view .LVU19
  92 0032 1A4B     		ldr	r3, .L16+4
  93 0034 9C63     		str	r4, [r3, #56]
  60:Core/Src/main.c ****         delay(500);
  94              		.loc 1 60 9 is_stmt 1 view .LVU20
  95 0036 4FF4FA70 		mov	r0, #500
  96 003a FFF7FEFF 		bl	delay
  97              	.LVL8:
  54:Core/Src/main.c ****     {
  98              		.loc 1 54 48 discriminator 2 view .LVU21
  99 003e A4F5FA74 		sub	r4, r4, #500
 100              	.LVL9:
  54:Core/Src/main.c ****     {
 101              		.loc 1 54 48 is_stmt 0 discriminator 2 view .LVU22
 102 0042 A4B2     		uxth	r4, r4
 103              	.LVL10:
 104              	.L5:
  54:Core/Src/main.c ****     {
 105              		.loc 1 54 37 is_stmt 1 discriminator 1 view .LVU23
ARM GAS  C:\Users\nip6\AppData\Local\Temp\cc7hcIfv.s 			page 4


 106 0044 14B1     		cbz	r4, .L13
  56:Core/Src/main.c ****             return;
 107              		.loc 1 56 9 view .LVU24
  56:Core/Src/main.c ****             return;
 108              		.loc 1 56 11 is_stmt 0 view .LVU25
 109 0046 002D     		cmp	r5, #0
 110 0048 F3D0     		beq	.L14
 111              	.LVL11:
 112              	.L1:
  56:Core/Src/main.c ****             return;
 113              		.loc 1 56 11 view .LVU26
 114              	.LBE3:
  61:Core/Src/main.c ****     }
  62:Core/Src/main.c **** 
  63:Core/Src/main.c ****     SET_BIT(GPIOA->BSRR, GPIO_BSRR_BR6); // ąŚą░ą┤ą░čæą╝ ąĮą░ą┐čĆą░ą▓ą╗ąĄąĮąĖąĄ ą▓čĆą░čēąĄąĮąĖčÅ ą▓
  64:Core/Src/main.c ****     for (uint16_t time = 1; time <= 4500; time += 500)
  65:Core/Src/main.c ****     {
  66:Core/Src/main.c ****         if(permission){
  67:Core/Src/main.c ****             return;
  68:Core/Src/main.c ****         }
  69:Core/Src/main.c ****         TIM3->CCR2 = time;
  70:Core/Src/main.c ****         delay(500);
  71:Core/Src/main.c ****     }
  72:Core/Src/main.c ****     for (uint16_t time = 4500; time >= 1; time -= 500)
  73:Core/Src/main.c ****     {
  74:Core/Src/main.c ****         if(permission){
  75:Core/Src/main.c ****             return;
  76:Core/Src/main.c ****         }
  77:Core/Src/main.c ****         TIM3->CCR2 = time;
  78:Core/Src/main.c ****         delay(500);
  79:Core/Src/main.c ****     }
  80:Core/Src/main.c **** }
 115              		.loc 1 80 1 view .LVU27
 116 004a 38BD     		pop	{r3, r4, r5, pc}
 117              	.LVL12:
 118              	.L13:
  63:Core/Src/main.c ****     for (uint16_t time = 1; time <= 4500; time += 500)
 119              		.loc 1 63 5 is_stmt 1 view .LVU28
 120 004c 124A     		ldr	r2, .L16
 121 004e 9369     		ldr	r3, [r2, #24]
 122 0050 43F48003 		orr	r3, r3, #4194304
 123 0054 9361     		str	r3, [r2, #24]
  64:Core/Src/main.c ****     {
 124              		.loc 1 64 5 view .LVU29
 125              	.LBB4:
  64:Core/Src/main.c ****     {
 126              		.loc 1 64 10 view .LVU30
 127              	.LVL13:
  64:Core/Src/main.c ****     {
 128              		.loc 1 64 19 is_stmt 0 view .LVU31
 129 0056 0124     		movs	r4, #1
 130              	.LVL14:
 131              	.L7:
  64:Core/Src/main.c ****     {
 132              		.loc 1 64 34 is_stmt 1 discriminator 1 view .LVU32
 133 0058 41F29413 		movw	r3, #4500
 134 005c 9C42     		cmp	r4, r3
ARM GAS  C:\Users\nip6\AppData\Local\Temp\cc7hcIfv.s 			page 5


 135 005e 0BD8     		bhi	.L15
  66:Core/Src/main.c ****             return;
 136              		.loc 1 66 9 view .LVU33
  66:Core/Src/main.c ****             return;
 137              		.loc 1 66 11 is_stmt 0 view .LVU34
 138 0060 002D     		cmp	r5, #0
 139 0062 F2D1     		bne	.L1
  69:Core/Src/main.c ****         delay(500);
 140              		.loc 1 69 9 is_stmt 1 view .LVU35
  69:Core/Src/main.c ****         delay(500);
 141              		.loc 1 69 20 is_stmt 0 view .LVU36
 142 0064 0D4B     		ldr	r3, .L16+4
 143 0066 9C63     		str	r4, [r3, #56]
  70:Core/Src/main.c ****     }
 144              		.loc 1 70 9 is_stmt 1 view .LVU37
 145 0068 4FF4FA70 		mov	r0, #500
 146 006c FFF7FEFF 		bl	delay
 147              	.LVL15:
  64:Core/Src/main.c ****     {
 148              		.loc 1 64 48 discriminator 2 view .LVU38
 149 0070 04F5FA74 		add	r4, r4, #500
 150              	.LVL16:
  64:Core/Src/main.c ****     {
 151              		.loc 1 64 48 is_stmt 0 discriminator 2 view .LVU39
 152 0074 A4B2     		uxth	r4, r4
 153              	.LVL17:
  64:Core/Src/main.c ****     {
 154              		.loc 1 64 48 discriminator 2 view .LVU40
 155 0076 EFE7     		b	.L7
 156              	.L15:
  64:Core/Src/main.c ****     {
 157              		.loc 1 64 48 discriminator 2 view .LVU41
 158              	.LBE4:
 159              	.LBB5:
  72:Core/Src/main.c ****     {
 160              		.loc 1 72 19 view .LVU42
 161 0078 1C46     		mov	r4, r3
 162              	.LVL18:
 163              	.L9:
  72:Core/Src/main.c ****     {
 164              		.loc 1 72 37 is_stmt 1 discriminator 1 view .LVU43
 165 007a 002C     		cmp	r4, #0
 166 007c E5D0     		beq	.L1
  74:Core/Src/main.c ****             return;
 167              		.loc 1 74 9 view .LVU44
  74:Core/Src/main.c ****             return;
 168              		.loc 1 74 11 is_stmt 0 view .LVU45
 169 007e 002D     		cmp	r5, #0
 170 0080 E3D1     		bne	.L1
  77:Core/Src/main.c ****         delay(500);
 171              		.loc 1 77 9 is_stmt 1 view .LVU46
  77:Core/Src/main.c ****         delay(500);
 172              		.loc 1 77 20 is_stmt 0 view .LVU47
 173 0082 064B     		ldr	r3, .L16+4
 174 0084 9C63     		str	r4, [r3, #56]
  78:Core/Src/main.c ****     }
 175              		.loc 1 78 9 is_stmt 1 view .LVU48
ARM GAS  C:\Users\nip6\AppData\Local\Temp\cc7hcIfv.s 			page 6


 176 0086 4FF4FA70 		mov	r0, #500
 177 008a FFF7FEFF 		bl	delay
 178              	.LVL19:
  72:Core/Src/main.c ****     {
 179              		.loc 1 72 48 discriminator 2 view .LVU49
 180 008e A4F5FA74 		sub	r4, r4, #500
 181              	.LVL20:
  72:Core/Src/main.c ****     {
 182              		.loc 1 72 48 is_stmt 0 discriminator 2 view .LVU50
 183 0092 A4B2     		uxth	r4, r4
 184              	.LVL21:
  72:Core/Src/main.c ****     {
 185              		.loc 1 72 48 discriminator 2 view .LVU51
 186 0094 F1E7     		b	.L9
 187              	.L17:
 188 0096 00BF     		.align	2
 189              	.L16:
 190 0098 00000240 		.word	1073872896
 191 009c 00040040 		.word	1073742848
 192              	.LBE5:
 193              		.cfi_endproc
 194              	.LFE131:
 196              		.section	.text.main,"ax",%progbits
 197              		.align	1
 198              		.global	main
 199              		.syntax unified
 200              		.thumb
 201              		.thumb_func
 203              	main:
 204              	.LFB130:
  12:Core/Src/main.c ****     RCC_Init();
 205              		.loc 1 12 1 is_stmt 1 view -0
 206              		.cfi_startproc
 207              		@ Volatile: function does not return.
 208              		@ args = 0, pretend = 0, frame = 0
 209              		@ frame_needed = 0, uses_anonymous_args = 0
 210 0000 08B5     		push	{r3, lr}
 211              	.LCFI1:
 212              		.cfi_def_cfa_offset 8
 213              		.cfi_offset 3, -8
 214              		.cfi_offset 14, -4
  13:Core/Src/main.c ****     GPIO_Init();
 215              		.loc 1 13 5 view .LVU53
 216 0002 FFF7FEFF 		bl	RCC_Init
 217              	.LVL22:
  14:Core/Src/main.c ****     SysTick_Init();
 218              		.loc 1 14 5 view .LVU54
 219 0006 FFF7FEFF 		bl	GPIO_Init
 220              	.LVL23:
  15:Core/Src/main.c ****     /*ąŚą┤ąĄčüčī ą▓ą░ąČąĄąĮ ą┐ąŠčĆčÅą┤ąŠą║ ąĖąĮąĖčåąĖą░ą╗ąĖąĘą░čåąĖąĖ, čéą░ą║ ą║ą░ą║ ąÉą”ą¤ ą┤ąŠą╗ą
 221              		.loc 1 15 5 view .LVU55
 222 000a FFF7FEFF 		bl	SysTick_Init
 223              	.LVL24:
  19:Core/Src/main.c ****     DMA_Init();
 224              		.loc 1 19 5 view .LVU56
 225 000e FFF7FEFF 		bl	ADC_Init
 226              	.LVL25:
ARM GAS  C:\Users\nip6\AppData\Local\Temp\cc7hcIfv.s 			page 7


  20:Core/Src/main.c ****     TIM_PWM_Init();
 227              		.loc 1 20 5 view .LVU57
 228 0012 FFF7FEFF 		bl	DMA_Init
 229              	.LVL26:
  21:Core/Src/main.c **** 
 230              		.loc 1 21 5 view .LVU58
 231 0016 FFF7FEFF 		bl	TIM_PWM_Init
 232              	.LVL27:
 233 001a 02E0     		b	.L19
 234              	.L22:
  37:Core/Src/main.c ****         }
 235              		.loc 1 37 13 view .LVU59
  37:Core/Src/main.c ****         }
 236              		.loc 1 37 24 is_stmt 0 view .LVU60
 237 001c 054B     		ldr	r3, .L23
 238 001e 0122     		movs	r2, #1
 239 0020 9A63     		str	r2, [r3, #56]
 240              	.L19:
  23:Core/Src/main.c ****     {
 241              		.loc 1 23 5 is_stmt 1 view .LVU61
  34:Core/Src/main.c ****         if (permis)
 242              		.loc 1 34 9 view .LVU62
 243 0022 054C     		ldr	r4, .L23+4
 244 0024 2078     		ldrb	r0, [r4]	@ zero_extendqisi2
 245 0026 FFF7FEFF 		bl	filter_testing
 246              	.LVL28:
  35:Core/Src/main.c ****         {
 247              		.loc 1 35 9 view .LVU63
  35:Core/Src/main.c ****         {
 248              		.loc 1 35 13 is_stmt 0 view .LVU64
 249 002a 2378     		ldrb	r3, [r4]	@ zero_extendqisi2
  35:Core/Src/main.c ****         {
 250              		.loc 1 35 12 view .LVU65
 251 002c 002B     		cmp	r3, #0
 252 002e F8D0     		beq	.L19
 253 0030 F4E7     		b	.L22
 254              	.L24:
 255 0032 00BF     		.align	2
 256              	.L23:
 257 0034 00040040 		.word	1073742848
 258 0038 00000000 		.word	permis
 259              		.cfi_endproc
 260              	.LFE130:
 262              		.global	Vsense
 263              		.section	.bss.Vsense,"aw",%nobits
 264              		.align	2
 267              	Vsense:
 268 0000 00000000 		.space	4
 269              		.global	Temperature
 270              		.section	.bss.Temperature,"aw",%nobits
 271              		.align	2
 274              	Temperature:
 275 0000 00000000 		.space	4
 276              		.global	adc_value
 277              		.section	.bss.adc_value,"aw",%nobits
 278              		.align	2
 281              	adc_value:
ARM GAS  C:\Users\nip6\AppData\Local\Temp\cc7hcIfv.s 			page 8


 282 0000 00000000 		.space	6
 282      0000
 283              		.global	GlobalTickCount
 284              		.section	.bss.GlobalTickCount,"aw",%nobits
 285              		.align	1
 288              	GlobalTickCount:
 289 0000 0000     		.space	2
 290              		.global	permis
 291              		.section	.data.permis,"aw"
 294              	permis:
 295 0000 01       		.byte	1
 296              		.global	motor_direction
 297              		.section	.bss.motor_direction,"aw",%nobits
 300              	motor_direction:
 301 0000 00       		.space	1
 302              		.global	adc_overrun_count
 303              		.section	.bss.adc_overrun_count,"aw",%nobits
 306              	adc_overrun_count:
 307 0000 00       		.space	1
 308              		.global	adc_conversion_complete
 309              		.section	.bss.adc_conversion_complete,"aw",%nobits
 312              	adc_conversion_complete:
 313 0000 00       		.space	1
 314              		.global	motor_freq
 315              		.section	.bss.motor_freq,"aw",%nobits
 316              		.align	1
 319              	motor_freq:
 320 0000 0000     		.space	2
 321              		.global	adcInter
 322              		.section	.bss.adcInter,"aw",%nobits
 323              		.align	1
 326              	adcInter:
 327 0000 0000     		.space	2
 328              		.global	adc_buf
 329              		.section	.bss.adc_buf,"aw",%nobits
 330              		.align	2
 333              	adc_buf:
 334 0000 00000000 		.space	6
 334      0000
 335              		.text
 336              	.Letext0:
 337              		.file 2 "C:/Programs/Tools/xpack-arm-none-eabi-gcc-13.2.1-1.1/arm-none-eabi/include/machine/_defau
 338              		.file 3 "C:/Programs/Tools/xpack-arm-none-eabi-gcc-13.2.1-1.1/arm-none-eabi/include/sys/_stdint.h"
 339              		.file 4 "CMSIS/Devices/STM32F4xx/Inc/STM32F411xE/stm32f411xe.h"
 340              		.file 5 "Core/Inc/init.h"
 341              		.file 6 "Core/Inc/interrupt.h"
ARM GAS  C:\Users\nip6\AppData\Local\Temp\cc7hcIfv.s 			page 9


DEFINED SYMBOLS
                            *ABS*:00000000 main.c
C:\Users\nip6\AppData\Local\Temp\cc7hcIfv.s:21     .text.filter_testing:00000000 $t
C:\Users\nip6\AppData\Local\Temp\cc7hcIfv.s:27     .text.filter_testing:00000000 filter_testing
C:\Users\nip6\AppData\Local\Temp\cc7hcIfv.s:190    .text.filter_testing:00000098 $d
C:\Users\nip6\AppData\Local\Temp\cc7hcIfv.s:197    .text.main:00000000 $t
C:\Users\nip6\AppData\Local\Temp\cc7hcIfv.s:203    .text.main:00000000 main
C:\Users\nip6\AppData\Local\Temp\cc7hcIfv.s:257    .text.main:00000034 $d
C:\Users\nip6\AppData\Local\Temp\cc7hcIfv.s:294    .data.permis:00000000 permis
C:\Users\nip6\AppData\Local\Temp\cc7hcIfv.s:267    .bss.Vsense:00000000 Vsense
C:\Users\nip6\AppData\Local\Temp\cc7hcIfv.s:264    .bss.Vsense:00000000 $d
C:\Users\nip6\AppData\Local\Temp\cc7hcIfv.s:274    .bss.Temperature:00000000 Temperature
C:\Users\nip6\AppData\Local\Temp\cc7hcIfv.s:271    .bss.Temperature:00000000 $d
C:\Users\nip6\AppData\Local\Temp\cc7hcIfv.s:281    .bss.adc_value:00000000 adc_value
C:\Users\nip6\AppData\Local\Temp\cc7hcIfv.s:278    .bss.adc_value:00000000 $d
C:\Users\nip6\AppData\Local\Temp\cc7hcIfv.s:288    .bss.GlobalTickCount:00000000 GlobalTickCount
C:\Users\nip6\AppData\Local\Temp\cc7hcIfv.s:285    .bss.GlobalTickCount:00000000 $d
C:\Users\nip6\AppData\Local\Temp\cc7hcIfv.s:300    .bss.motor_direction:00000000 motor_direction
C:\Users\nip6\AppData\Local\Temp\cc7hcIfv.s:301    .bss.motor_direction:00000000 $d
C:\Users\nip6\AppData\Local\Temp\cc7hcIfv.s:306    .bss.adc_overrun_count:00000000 adc_overrun_count
C:\Users\nip6\AppData\Local\Temp\cc7hcIfv.s:307    .bss.adc_overrun_count:00000000 $d
C:\Users\nip6\AppData\Local\Temp\cc7hcIfv.s:312    .bss.adc_conversion_complete:00000000 adc_conversion_complete
C:\Users\nip6\AppData\Local\Temp\cc7hcIfv.s:313    .bss.adc_conversion_complete:00000000 $d
C:\Users\nip6\AppData\Local\Temp\cc7hcIfv.s:319    .bss.motor_freq:00000000 motor_freq
C:\Users\nip6\AppData\Local\Temp\cc7hcIfv.s:316    .bss.motor_freq:00000000 $d
C:\Users\nip6\AppData\Local\Temp\cc7hcIfv.s:326    .bss.adcInter:00000000 adcInter
C:\Users\nip6\AppData\Local\Temp\cc7hcIfv.s:323    .bss.adcInter:00000000 $d
C:\Users\nip6\AppData\Local\Temp\cc7hcIfv.s:333    .bss.adc_buf:00000000 adc_buf
C:\Users\nip6\AppData\Local\Temp\cc7hcIfv.s:330    .bss.adc_buf:00000000 $d

UNDEFINED SYMBOLS
delay
RCC_Init
GPIO_Init
SysTick_Init
ADC_Init
DMA_Init
TIM_PWM_Init
